Archive member included because of file (symbol)

arch/arm/lib/lib.a(ashldi3.o)
                              drivers/mmc/built-in.o (__aeabi_llsl)
arch/arm/lib/lib.a(lib1funcs.o)
                              arch/arm/cpu/armv7/built-in.o (__aeabi_uidiv)
arch/arm/lib/lib.a(lshrdi3.o)
                              fs/built-in.o (__aeabi_llsr)
arch/arm/lib/lib.a(div0.o)    arch/arm/lib/lib.a(lib1funcs.o) (__div0)

Discarded input sections

 .data          0x00000000        0x0 arch/arm/cpu/armv7/start.o
 .bss           0x00000000        0x0 arch/arm/cpu/armv7/start.o
 .text.mmu_page_table_flush
                0x00000000       0x24 arch/arm/cpu/armv7/built-in.o
 .text.v7_arch_cp15_set_l2aux_ctrl
                0x00000000        0x8 arch/arm/cpu/armv7/built-in.o
 .text.v7_arch_cp15_set_acr
                0x00000000        0x8 arch/arm/cpu/armv7/built-in.o
 .text.sdelay   0x00000000        0xc arch/arm/cpu/armv7/built-in.o
 .text.wait_on_value
                0x00000000       0x38 arch/arm/cpu/armv7/built-in.o
 .text.protect_secure_section
                0x00000000        0x4 arch/arm/cpu/armv7/built-in.o
 .text.smp_kick_all_cpus
                0x00000000       0x20 arch/arm/cpu/armv7/built-in.o
 .data          0x00000000        0x0 arch/arm/cpu/armv7/built-in.o
 .bss           0x00000000        0x0 arch/arm/cpu/armv7/built-in.o
 .text.enable_caches
                0x00000000        0xc arch/arm/lib/built-in.o
 .text.invalidate_dcache_range
                0x00000000        0x4 arch/arm/lib/built-in.o
 .text.flush_dcache_range
                0x00000000        0x4 arch/arm/lib/built-in.o
 .text.flush_dcache_all
                0x00000000        0xc arch/arm/lib/built-in.o
 .text.arm_init_before_mmu
                0x00000000        0x4 arch/arm/lib/built-in.o
 .text.mmu_page_table_flush
                0x00000000        0x4 arch/arm/lib/built-in.o
 .text.mmu_set_region_dcache_behaviour
                0x00000000       0x5c arch/arm/lib/built-in.o
 .text.icache_status
                0x00000000        0xc arch/arm/lib/built-in.o
 .data          0x00000000        0x0 arch/arm/lib/built-in.o
 .bss           0x00000000        0x0 arch/arm/lib/built-in.o
 .text          0x00000000        0x0 arch/arm/mach-sunxi/built-in.o
 .text.spl_board_load_image
                0x00000000       0x1c arch/arm/mach-sunxi/built-in.o
 .text.mctl_await_completion
                0x00000000       0x50 arch/arm/mach-sunxi/built-in.o
 .text.mctl_mem_matches
                0x00000000       0x48 arch/arm/mach-sunxi/built-in.o
 .text.sunxi_gpio_get_cfgpin
                0x00000000       0x30 arch/arm/mach-sunxi/built-in.o
 .text.sunxi_usb_phy_enable_squelch_detect
                0x00000000       0xa4 arch/arm/mach-sunxi/built-in.o
 .text.sunxi_usb_phy_power_off
                0x00000000       0x30 arch/arm/mach-sunxi/built-in.o
 .text.sunxi_usb_phy_power_is_on
                0x00000000       0x20 arch/arm/mach-sunxi/built-in.o
 .text.sunxi_usb_phy_vbus_detect
                0x00000000       0x4c arch/arm/mach-sunxi/built-in.o
 .text.sunxi_usb_phy_id_detect
                0x00000000       0x1c arch/arm/mach-sunxi/built-in.o
 .text.sunxi_usb_phy_remove
                0x00000000       0x68 arch/arm/mach-sunxi/built-in.o
 .text.rsb_await_trans
                0x00000000       0x68 arch/arm/mach-sunxi/built-in.o
 .text.rsb_do_trans
                0x00000000       0x18 arch/arm/mach-sunxi/built-in.o
 .text.rsb_init
                0x00000000       0xc0 arch/arm/mach-sunxi/built-in.o
 .text.rsb_set_device_address
                0x00000000       0x24 arch/arm/mach-sunxi/built-in.o
 .text.rsb_write
                0x00000000       0x34 arch/arm/mach-sunxi/built-in.o
 .text.rsb_read
                0x00000000       0x4c arch/arm/mach-sunxi/built-in.o
 .text.clock_set_pll3
                0x00000000       0x4c arch/arm/mach-sunxi/built-in.o
 .text.clock_set_pll5
                0x00000000       0xd8 arch/arm/mach-sunxi/built-in.o
 .text.clock_get_pll3
                0x00000000       0x3c arch/arm/mach-sunxi/built-in.o
 .text.clock_get_mipi_pll
                0x00000000       0x50 arch/arm/mach-sunxi/built-in.o
 .text.clock_set_de_mod_clock
                0x00000000       0x4c arch/arm/mach-sunxi/built-in.o
 .data          0x00000000       0x18 arch/arm/mach-sunxi/built-in.o
 .bss           0x00000000        0x0 arch/arm/mach-sunxi/built-in.o
 .text          0x00000000        0x0 board/sunxi/built-in.o
 .data          0x00000000        0x0 board/sunxi/built-in.o
 .bss           0x00000000        0x0 board/sunxi/built-in.o
 .text          0x00000000        0x0 cmd/built-in.o
 .text.bootz_setup
                0x00000000       0x18 cmd/built-in.o
 .text.sunxi_name_to_gpio
                0x00000000        0xc cmd/built-in.o
 .text.i2c_init_board
                0x00000000        0x4 cmd/built-in.o
 .data          0x00000000        0x0 cmd/built-in.o
 .bss           0x00000000        0x0 cmd/built-in.o
 .text          0x00000000        0x0 common/built-in.o
 .text.hash_finish_crc32
                0x00000000       0x30 common/built-in.o
 .text.hash_update_crc32
                0x00000000       0x24 common/built-in.o
 .text.hash_init_crc32
                0x00000000       0x24 common/built-in.o
 .text.hash_lookup_algo
                0x00000000       0x28 common/built-in.o
 .text.hash_progressive_lookup_algo
                0x00000000       0x38 common/built-in.o
 .text.hash_parse_string
                0x00000000       0x68 common/built-in.o
 .text.hash_block
                0x00000000       0x6c common/built-in.o
 .text.unset_local_var
                0x00000000       0xa0 common/built-in.o
 .text.red_led_off
                0x00000000        0x4 common/built-in.o
 .text.green_led_on
                0x00000000        0x4 common/built-in.o
 .text.green_led_off
                0x00000000        0x4 common/built-in.o
 .text.yellow_led_on
                0x00000000        0x4 common/built-in.o
 .text.yellow_led_off
                0x00000000        0x4 common/built-in.o
 .text.blue_led_on
                0x00000000        0x4 common/built-in.o
 .text.blue_led_off
                0x00000000        0x4 common/built-in.o
 .text.arch_reserve_stacks
                0x00000000        0x8 common/built-in.o
 .text.board_flash_wp_on
                0x00000000        0x8 common/built-in.o
 .text.fixup_cpu
                0x00000000        0x8 common/built-in.o
 .text.env_flags_parse_varaccess_from_binflags
                0x00000000       0x4c common/built-in.o
 .text.fdt_read_prop
                0x00000000       0x8c common/built-in.o
 .text.fdt_getprop_u32_default
                0x00000000       0x50 common/built-in.o
 .text.do_fixup_by_path_u32
                0x00000000       0x2c common/built-in.o
 .text.do_fixup_by_prop
                0x00000000       0x90 common/built-in.o
 .text.do_fixup_by_prop_u32
                0x00000000       0x3c common/built-in.o
 .text.do_fixup_by_compat
                0x00000000       0x80 common/built-in.o
 .text.do_fixup_by_compat_u32
                0x00000000       0x2c common/built-in.o
 .text.fdt_increase_size
                0x00000000       0x14 common/built-in.o
 .text.fdt_del_node_and_alias
                0x00000000       0x64 common/built-in.o
 .text.fdt_node_offset_by_compat_reg
                0x00000000       0x88 common/built-in.o
 .text.fdt_alloc_phandle
                0x00000000       0x58 common/built-in.o
 .text.fdt_set_phandle
                0x00000000       0x60 common/built-in.o
 .text.fdt_create_phandle
                0x00000000       0x64 common/built-in.o
 .text.fdt_set_node_status
                0x00000000      0x10c common/built-in.o
 .text.fdt_set_status_by_alias
                0x00000000       0x44 common/built-in.o
 .text.fdt_verify_alias_address
                0x00000000       0xd8 common/built-in.o
 .text.fdt_get_base_address
                0x00000000       0x50 common/built-in.o
 .text.fdt_read_range
                0x00000000      0x13c common/built-in.o
 .text.fdt_setup_simplefb_node
                0x00000000      0x1fc common/built-in.o
 .text.fdt_fixup_display
                0x00000000       0xf0 common/built-in.o
 .text.mdio_free
                0x00000000        0x4 common/built-in.o
 .text.mdio_unregister
                0x00000000       0x3c common/built-in.o
 .text.usb_submit_int_msg
                0x00000000        0x4 common/built-in.o
 .text.usb_set_protocol
                0x00000000       0x4c common/built-in.o
 .text.usb_set_idle
                0x00000000       0x50 common/built-in.o
 .text.usb_get_report
                0x00000000       0x58 common/built-in.o
 .text.usb_get_class_descriptor
                0x00000000       0x58 common/built-in.o
 .text.board_usb_init
                0x00000000        0x8 common/built-in.o
 .text.board_usb_cleanup
                0x00000000        0x8 common/built-in.o
 .text.hub_port_reset
                0x00000000       0x20 common/built-in.o
 .text.usb_hub_probe
                0x00000000       0x58 common/built-in.o
 .text.splash_screen_prepare
                0x00000000        0x8 common/built-in.o
 .text.menu_default_choice
                0x00000000       0x1c common/built-in.o
 .text.fprintf  0x00000000       0x58 common/built-in.o
 .text.confirm_yesno
                0x00000000       0xc4 common/built-in.o
 .text.cfree    0x00000000        0x4 common/built-in.o
 .text.pvalloc  0x00000000       0x18 common/built-in.o
 .text.valloc   0x00000000        0xc common/built-in.o
 .text.malloc_usable_size
                0x00000000       0x3c common/built-in.o
 .text.mallopt  0x00000000       0x70 common/built-in.o
 .text.memalign_simple
                0x00000000       0x48 common/built-in.o
 .text.genimg_get_short_name
                0x00000000       0x1c common/built-in.o
 .text.genimg_get_cat_name
                0x00000000       0x58 common/built-in.o
 .text.genimg_get_cat_short_name
                0x00000000       0x58 common/built-in.o
 .text.genimg_get_cat_count
                0x00000000       0x18 common/built-in.o
 .text.genimg_get_cat_desc
                0x00000000       0x18 common/built-in.o
 .text.genimg_get_type_short_name
                0x00000000       0x10 common/built-in.o
 .text.genimg_get_comp_short_name
                0x00000000       0x10 common/built-in.o
 .text.genimg_get_os_short_name
                0x00000000       0x10 common/built-in.o
 .text.genimg_get_arch_short_name
                0x00000000       0x10 common/built-in.o
 .text.get_table_entry_id
                0x00000000       0x4c common/built-in.o
 .text.genimg_get_os_id
                0x00000000       0x18 common/built-in.o
 .text.genimg_get_arch_id
                0x00000000       0x18 common/built-in.o
 .text.genimg_get_type_id
                0x00000000       0x18 common/built-in.o
 .text.genimg_get_comp_id
                0x00000000       0x18 common/built-in.o
 .text.stdio_init
                0x00000000       0x24 common/built-in.o
 .text.cli_simple_parse_line
                0x00000000       0x80 common/built-in.o
 .text.cli_simple_run_command
                0x00000000      0x164 common/built-in.o
 .text.cli_simple_loop
                0x00000000       0x7c common/built-in.o
 .text.cli_simple_run_command_list
                0x00000000       0x74 common/built-in.o
 .text.run_command_repeatable
                0x00000000       0x18 common/built-in.o
 .rodata.table_info
                0x00000000       0x30 common/built-in.o
 .data          0x00000000        0x0 common/built-in.o
 .data.hash_algo
                0x00000000       0x1c common/built-in.o
 .data.mmap_threshold
                0x00000000        0x4 common/built-in.o
 .bss           0x00000000        0x0 common/built-in.o
 .bss.env_ptr   0x00000000        0x4 common/built-in.o
 .bss.n_mmaps_max
                0x00000000        0x4 common/built-in.o
 .bss.save_addr
                0x00000000        0x4 common/built-in.o
 .bss.save_size
                0x00000000        0x4 common/built-in.o
 .bss.msg.5734  0x00000000       0x1e common/built-in.o
 .bss.lastcommand.4228
                0x00000000      0x401 common/built-in.o
 .text          0x00000000        0x0 disk/built-in.o
 .text.set_protective_mbr
                0x00000000       0xc4 disk/built-in.o
 .text.part_get_info_efi_by_name
                0x00000000       0x60 disk/built-in.o
 .text.write_gpt_table
                0x00000000      0x38c disk/built-in.o
 .text.gpt_fill_pte
                0x00000000      0x2d0 disk/built-in.o
 .text.gpt_fill_header
                0x00000000      0x19c disk/built-in.o
 .text.gpt_restore
                0x00000000       0xfc disk/built-in.o
 .text.gpt_verify_headers
                0x00000000       0x78 disk/built-in.o
 .text.gpt_verify_partitions
                0x00000000      0x288 disk/built-in.o
 .text.is_valid_gpt_buf
                0x00000000       0x6c disk/built-in.o
 .text.write_mbr_and_gpt_partitions
                0x00000000      0x418 disk/built-in.o
 .rodata        0x00000000       0x10 disk/built-in.o
 .rodata.__func__.4425
                0x00000000       0x16 disk/built-in.o
 .rodata.__func__.4394
                0x00000000        0xc disk/built-in.o
 .rodata.__func__.4445
                0x00000000       0x1d disk/built-in.o
 .rodata.__func__.4344
                0x00000000       0x13 disk/built-in.o
 .rodata.__func__.4412
                0x00000000       0x13 disk/built-in.o
 .data          0x00000000        0x0 disk/built-in.o
 .bss           0x00000000        0x0 disk/built-in.o
 .text          0x00000000        0x0 drivers/built-in.o
 .text._device_find_global_by_of_offset
                0x00000000       0x50 drivers/built-in.o
 .text.device_find_child_by_seq
                0x00000000       0x60 drivers/built-in.o
 .text.device_get_child_by_seq
                0x00000000       0x5c drivers/built-in.o
 .text.device_find_child_by_of_offset
                0x00000000       0x44 drivers/built-in.o
 .text.device_get_child_by_of_offset
                0x00000000       0x38 drivers/built-in.o
 .text.device_get_global_by_of_offset
                0x00000000       0x38 drivers/built-in.o
 .text.dev_get_parent
                0x00000000        0x8 drivers/built-in.o
 .text.dev_get_driver_ops
                0x00000000       0x10 drivers/built-in.o
 .text.dev_get_uclass_name
                0x00000000       0x14 drivers/built-in.o
 .text.dev_get_addr_ptr
                0x00000000        0x8 drivers/built-in.o
 .text.dev_map_physmem
                0x00000000       0x14 drivers/built-in.o
 .text.device_has_children
                0x00000000       0x14 drivers/built-in.o
 .text.device_set_name_alloced
                0x00000000       0x10 drivers/built-in.o
 .text.device_set_name
                0x00000000       0x30 drivers/built-in.o
 .text.of_device_is_compatible
                0x00000000       0x24 drivers/built-in.o
 .text.of_machine_is_compatible
                0x00000000       0x20 drivers/built-in.o
 .text.dm_set_translation_offset
                0x00000000       0x18 drivers/built-in.o
 .text.dm_uninit
                0x00000000       0x1c drivers/built-in.o
 .text.uclass_destroy
                0x00000000       0x98 drivers/built-in.o
 .text.uclass_find_device_by_name
                0x00000000       0x88 drivers/built-in.o
 .text.uclass_get_device_by_driver
                0x00000000       0x60 drivers/built-in.o
 .text.uclass_get_device_by_name
                0x00000000       0x2c drivers/built-in.o
 .text.uclass_get_device_by_phandle
                0x00000000       0x9c drivers/built-in.o
 .text.uclass_first_device_err
                0x00000000       0x28 drivers/built-in.o
 .text.dm_dbg   0x00000000       0x24 drivers/built-in.o
 .text.list_count_items
                0x00000000       0x24 drivers/built-in.o
 .text.simple_bus_translate
                0x00000000       0x38 drivers/built-in.o
 .text.blk_list_part
                0x00000000       0x90 drivers/built-in.o
 .text.blk_print_part_devnum
                0x00000000       0x4c drivers/built-in.o
 .text.blk_list_devices
                0x00000000       0x6c drivers/built-in.o
 .text.blk_print_device_num
                0x00000000       0x50 drivers/built-in.o
 .text.blk_show_device
                0x00000000       0x80 drivers/built-in.o
 .text.blk_read_devnum
                0x00000000       0x7c drivers/built-in.o
 .text.blk_write_devnum
                0x00000000       0x50 drivers/built-in.o
 .text.sort_array_by_ordering
                0x00000000       0xec drivers/built-in.o
 .text._input_send_keycodes
                0x00000000      0x398 drivers/built-in.o
 .text.input_send_keycodes
                0x00000000        0x8 drivers/built-in.o
 .text.input_add_keycode
                0x00000000       0x88 drivers/built-in.o
 .text.input_add_table
                0x00000000       0x44 drivers/built-in.o
 .text.input_set_delays
                0x00000000        0xc drivers/built-in.o
 .text.input_allow_repeats
                0x00000000        0x8 drivers/built-in.o
 .text.input_leds_changed
                0x00000000       0x14 drivers/built-in.o
 .text.input_add_tables
                0x00000000       0x58 drivers/built-in.o
 .text.input_stdio_register
                0x00000000       0x54 drivers/built-in.o
 .text.create_keymap
                0x00000000       0x88 drivers/built-in.o
 .text.key_matrix_decode
                0x00000000       0xec drivers/built-in.o
 .text.key_matrix_decode_fdt
                0x00000000       0xc4 drivers/built-in.o
 .text.key_matrix_init
                0x00000000       0x38 drivers/built-in.o
 .rodata.kbd_to_ansi364
                0x00000000       0x20 drivers/built-in.o
 .rodata.kbd_plain_xlate
                0x00000000       0x64 drivers/built-in.o
 .rodata.kbd_plain_xlate_german
                0x00000000       0x84 drivers/built-in.o
 .rodata.CSWTCH.26
                0x00000000        0xd drivers/built-in.o
 .data          0x00000000        0x0 drivers/built-in.o
 .data.kbd_ctrl_xlate
                0x00000000       0x64 drivers/built-in.o
 .data.kbd_right_alt_xlate_german
                0x00000000       0x58 drivers/built-in.o
 .data.kbd_shift_xlate_german
                0x00000000       0x84 drivers/built-in.o
 .data.kbd_entry
                0x00000000       0x8c drivers/built-in.o
 .data.kbd_shift_xlate
                0x00000000       0x64 drivers/built-in.o
 .bss           0x00000000        0x0 drivers/built-in.o
 .text          0x00000000        0x0 drivers/gpio/built-in.o
 .text.gpio_xlate_offs_flags
                0x00000000       0x40 drivers/gpio/built-in.o
 .text.dm_gpio_requestf
                0x00000000       0x44 drivers/gpio/built-in.o
 .text.gpio_requestf
                0x00000000       0x44 drivers/gpio/built-in.o
 .text.dm_gpio_get_open_drain
                0x00000000       0x50 drivers/gpio/built-in.o
 .text.dm_gpio_set_open_drain
                0x00000000       0x4c drivers/gpio/built-in.o
 .text.dm_gpio_set_dir_flags
                0x00000000       0x84 drivers/gpio/built-in.o
 .text._gpio_request_by_name_nodev
                0x00000000      0x10c drivers/gpio/built-in.o
 .text.dm_gpio_set_dir
                0x00000000        0x8 drivers/gpio/built-in.o
 .text.gpio_claim_vector
                0x00000000       0x9c drivers/gpio/built-in.o
 .text.gpio_get_values_as_int
                0x00000000       0x4c drivers/gpio/built-in.o
 .text.dm_gpio_get_values_as_int
                0x00000000       0x4c drivers/gpio/built-in.o
 .text.gpio_request_by_name_nodev
                0x00000000       0x30 drivers/gpio/built-in.o
 .text.gpio_request_by_name
                0x00000000       0x34 drivers/gpio/built-in.o
 .text.gpio_get_list_count
                0x00000000       0x38 drivers/gpio/built-in.o
 .text.dm_gpio_free
                0x00000000        0xc drivers/gpio/built-in.o
 .text.gpio_free_list
                0x00000000       0x3c drivers/gpio/built-in.o
 .text.gpio_free_list_nodev
                0x00000000       0x14 drivers/gpio/built-in.o
 .text.gpio_request_list_by_name_nodev
                0x00000000       0x94 drivers/gpio/built-in.o
 .text.gpio_request_list_by_name
                0x00000000       0x34 drivers/gpio/built-in.o
 .text.gpio_get_number
                0x00000000       0x20 drivers/gpio/built-in.o
 .data          0x00000000        0x0 drivers/gpio/built-in.o
 .bss           0x00000000        0x0 drivers/gpio/built-in.o
 .text          0x00000000        0x0 drivers/i2c/built-in.o
 .text.i2c_reloc_fixup
                0x00000000        0x4 drivers/i2c/built-in.o
 .text.i2c_init_board
                0x00000000        0x4 drivers/i2c/built-in.o
 .text.i2c_early_init_f
                0x00000000        0x4 drivers/i2c/built-in.o
 .text.i2c_reg_read
                0x00000000       0x20 drivers/i2c/built-in.o
 .text.i2c_reg_write
                0x00000000       0x20 drivers/i2c/built-in.o
 .text.calc_tick
                0x00000000       0x1c drivers/i2c/built-in.o
 .text.mvtwsi_error
                0x00000000       0x20 drivers/i2c/built-in.o
 .data          0x00000000        0x0 drivers/i2c/built-in.o
 .bss           0x00000000        0x0 drivers/i2c/built-in.o
 .text          0x00000000        0x0 drivers/mmc/built-in.o
 .text.mmc_destroy
                0x00000000        0x4 drivers/mmc/built-in.o
 .text.board_mmc_init
                0x00000000        0x8 drivers/mmc/built-in.o
 .text.mmc_set_preinit
                0x00000000        0x8 drivers/mmc/built-in.o
 .data          0x00000000        0x0 drivers/mmc/built-in.o
 .bss           0x00000000        0x0 drivers/mmc/built-in.o
 .text          0x00000000        0x0 drivers/net/built-in.o
 .data          0x00000000        0x0 drivers/net/built-in.o
 .bss           0x00000000        0x0 drivers/net/built-in.o
 .text          0x00000000        0x0 drivers/net/phy/built-in.o
 .text.phy_register
                0x00000000       0x28 drivers/net/phy/built-in.o
 .text.phy_set_supported
                0x00000000       0x5c drivers/net/phy/built-in.o
 .text.miiphy_reset
                0x00000000       0x24 drivers/net/phy/built-in.o
 .text.phy_startup
                0x00000000       0x24 drivers/net/phy/built-in.o
 .data          0x00000000        0x0 drivers/net/phy/built-in.o
 .bss           0x00000000        0x0 drivers/net/phy/built-in.o
 .text          0x00000000        0x0 drivers/power/built-in.o
 .text.sy8106a_set_vout1
                0x00000000       0x54 drivers/power/built-in.o
 .data          0x00000000        0x0 drivers/power/built-in.o
 .bss           0x00000000        0x0 drivers/power/built-in.o
 .comment       0x00000000       0x65 drivers/power/built-in.o
 .note.GNU-stack
                0x00000000        0x0 drivers/power/built-in.o
 .ARM.attributes
                0x00000000       0x2f drivers/power/built-in.o
 .debug_aranges
                0x00000000       0x20 drivers/power/built-in.o
 .debug_info    0x00000000      0x162 drivers/power/built-in.o
 .debug_abbrev  0x00000000       0xf0 drivers/power/built-in.o
 .debug_line    0x00000000       0x8c drivers/power/built-in.o
 .debug_frame   0x00000000       0x30 drivers/power/built-in.o
 .debug_str     0x00000000      0x182 drivers/power/built-in.o
 .debug_loc     0x00000000       0x5f drivers/power/built-in.o
 .debug_ranges  0x00000000       0x28 drivers/power/built-in.o
 .text          0x00000000        0x0 drivers/serial/built-in.o
 .text.ns16550_calc_divisor
                0x00000000       0x18 drivers/serial/built-in.o
 .text.NS16550_reinit
                0x00000000       0x54 drivers/serial/built-in.o
 .text.NS16550_putc
                0x00000000       0x34 drivers/serial/built-in.o
 .text.NS16550_getc
                0x00000000       0x30 drivers/serial/built-in.o
 .text.NS16550_tstc
                0x00000000       0x14 drivers/serial/built-in.o
 .data          0x00000000        0x0 drivers/serial/built-in.o
 .bss           0x00000000        0x0 drivers/serial/built-in.o
 .text          0x00000000        0x0 drivers/spi/built-in.o
 .text.spi_set_wordlen
                0x00000000       0x30 drivers/spi/built-in.o
 .text.spi_do_alloc_slave
                0x00000000       0x4c drivers/spi/built-in.o
 .rodata.str1.1
                0x00000000       0x19 drivers/spi/built-in.o
 .data          0x00000000        0x0 drivers/spi/built-in.o
 .bss           0x00000000        0x0 drivers/spi/built-in.o
 .comment       0x00000000       0x65 drivers/spi/built-in.o
 .note.GNU-stack
                0x00000000        0x0 drivers/spi/built-in.o
 .ARM.attributes
                0x00000000       0x2f drivers/spi/built-in.o
 .debug_aranges
                0x00000000       0x28 drivers/spi/built-in.o
 .debug_info    0x00000000      0x20c drivers/spi/built-in.o
 .debug_abbrev  0x00000000      0x101 drivers/spi/built-in.o
 .debug_line    0x00000000       0xb9 drivers/spi/built-in.o
 .debug_frame   0x00000000       0x48 drivers/spi/built-in.o
 .debug_str     0x00000000      0x1ca drivers/spi/built-in.o
 .debug_loc     0x00000000      0x125 drivers/spi/built-in.o
 .debug_ranges  0x00000000       0x18 drivers/spi/built-in.o
 .text          0x00000000        0x0 drivers/usb/common/built-in.o
 .text.usb_get_dr_mode
                0x00000000       0x88 drivers/usb/common/built-in.o
 .rodata.str1.1
                0x00000000       0x66 drivers/usb/common/built-in.o
 .rodata.__func__.4630
                0x00000000       0x10 drivers/usb/common/built-in.o
 .rodata.usb_dr_modes
                0x00000000       0x10 drivers/usb/common/built-in.o
 .data          0x00000000        0x0 drivers/usb/common/built-in.o
 .bss           0x00000000        0x0 drivers/usb/common/built-in.o
 .comment       0x00000000       0x65 drivers/usb/common/built-in.o
 .note.GNU-stack
                0x00000000        0x0 drivers/usb/common/built-in.o
 .ARM.attributes
                0x00000000       0x2f drivers/usb/common/built-in.o
 .debug_aranges
                0x00000000       0x20 drivers/usb/common/built-in.o
 .debug_info    0x00000000      0x606 drivers/usb/common/built-in.o
 .debug_abbrev  0x00000000      0x16b drivers/usb/common/built-in.o
 .debug_line    0x00000000      0x111 drivers/usb/common/built-in.o
 .debug_frame   0x00000000       0x2c drivers/usb/common/built-in.o
 .debug_str     0x00000000      0x4c1 drivers/usb/common/built-in.o
 .debug_loc     0x00000000       0x6f drivers/usb/common/built-in.o
 .debug_ranges  0x00000000       0x10 drivers/usb/common/built-in.o
 .text          0x00000000        0x0 drivers/usb/host/built-in.o
 .text.create_int_queue
                0x00000000       0x58 drivers/usb/host/built-in.o
 .text.poll_int_queue
                0x00000000       0x38 drivers/usb/host/built-in.o
 .text.destroy_int_queue
                0x00000000       0x38 drivers/usb/host/built-in.o
 .text.usb_setup_ehci_gadget
                0x00000000       0x68 drivers/usb/host/built-in.o
 .text.usb_detect_change
                0x00000000       0xb8 drivers/usb/host/built-in.o
 .text.rh_check_port_status
                0x00000000       0x54 drivers/usb/host/built-in.o
 .rodata.default_ehci_ops
                0x00000000       0x14 drivers/usb/host/built-in.o
 .data          0x00000000        0x0 drivers/usb/host/built-in.o
 .bss           0x00000000        0x0 drivers/usb/host/built-in.o
 .text          0x00000000        0x0 fs/built-in.o
 .text.fs_uuid  0x00000000       0x28 fs/built-in.o
 .text.do_fs_uuid
                0x00000000       0x90 fs/built-in.o
 .text.fat_register_device
                0x00000000       0x8c fs/built-in.o
 .text.file_fat_read
                0x00000000       0x3c fs/built-in.o
 .text.file_getfsname
                0x00000000       0x18 fs/built-in.o
 .text.file_cd  0x00000000      0x1f4 fs/built-in.o
 .text.file_detectfs
                0x00000000       0x40 fs/built-in.o
 .text.file_ls  0x00000000       0x8c fs/built-in.o
 .text.file_read
                0x00000000       0x9c fs/built-in.o
 .rodata.filesystems
                0x00000000       0x18 fs/built-in.o
 .data          0x00000000        0x0 fs/built-in.o
 .data.file_cwd
                0x00000000      0x200 fs/built-in.o
 .data.current_filesystem
                0x00000000        0x4 fs/built-in.o
 .bss           0x00000000        0x0 fs/built-in.o
 .bss.ext4fs_symlinknest
                0x00000000        0x4 fs/built-in.o
 .bss.g_parent_inode
                0x00000000        0x4 fs/built-in.o
 .text          0x00000000        0x0 lib/built-in.o
 .text.invalidate_icache_all
                0x00000000        0x4 lib/built-in.o
 .text.inflateInit_
                0x00000000       0x14 lib/built-in.o
 .text.crc7     0x00000000       0x30 lib/built-in.o
 .text.crc8     0x00000000       0x58 lib/built-in.o
 .text.lmb_dump_all
                0x00000000        0x4 lib/built-in.o
 .text.lmb_is_reserved
                0x00000000       0x60 lib/built-in.o
 .text.arch_lmb_reserve
                0x00000000        0x4 lib/built-in.o
 .text.ldiv     0x00000000       0x50 lib/built-in.o
 .text.rc4_encode
                0x00000000       0xe4 lib/built-in.o
 .text.fdt_get_max_phandle
                0x00000000       0x6c lib/built-in.o
 .text.fdt_get_path
                0x00000000      0x138 lib/built-in.o
 .text.fdt_node_offset_by_prop_value
                0x00000000       0x94 lib/built-in.o
 .text.fdt_count_strings
                0x00000000       0x58 lib/built-in.o
 .text.fdt_get_string
                0x00000000       0x14 lib/built-in.o
 .text.fdt_node_offset_by_compatible
                0x00000000       0x78 lib/built-in.o
 .text.fdt_set_name
                0x00000000       0x88 lib/built-in.o
 .text.fdt_pack
                0x00000000       0x5c lib/built-in.o
 .text.fdt_remove_unused_strings
                0x00000000       0xac lib/built-in.o
 .text._fdt_sw_check_header
                0x00000000       0x20 lib/built-in.o
 .text._fdt_grab_space
                0x00000000       0x54 lib/built-in.o
 .text.fdt_create
                0x00000000       0x64 lib/built-in.o
 .text.fdt_resize
                0x00000000       0xb8 lib/built-in.o
 .text.fdt_add_reservemap_entry
                0x00000000       0xbc lib/built-in.o
 .text.fdt_finish_reservemap
                0x00000000       0x18 lib/built-in.o
 .text.fdt_begin_node
                0x00000000       0x64 lib/built-in.o
 .text.fdt_end_node
                0x00000000       0x38 lib/built-in.o
 .text.fdt_property_placeholder
                0x00000000      0x108 lib/built-in.o
 .text.fdt_property
                0x00000000       0x38 lib/built-in.o
 .text.fdt_finish
                0x00000000       0xfc lib/built-in.o
 .text.fdt_setprop_inplace_namelen_partial
                0x00000000       0x54 lib/built-in.o
 .text.fdt_setprop_inplace
                0x00000000       0x6c lib/built-in.o
 .text.fdt_nop_property
                0x00000000       0x3c lib/built-in.o
 .text.fdt_nop_node
                0x00000000       0x50 lib/built-in.o
 .text.fdt_find_regions
                0x00000000      0x3d8 lib/built-in.o
 .text.fdt_create_empty_tree
                0x00000000       0x74 lib/built-in.o
 .text.fdt_add_region
                0x00000000       0xa8 lib/built-in.o
 .text.fdt_add_alias_regions
                0x00000000      0x1a0 lib/built-in.o
 .text.fdt_next_region
                0x00000000      0x538 lib/built-in.o
 .text.fdt_first_region
                0x00000000       0x4c lib/built-in.o
 .text.fdtdec_get_uint
                0x00000000       0x30 lib/built-in.o
 .text.fdtdec_get_compatible
                0x00000000       0x10 lib/built-in.o
 .text.fdtdec_get_uint64
                0x00000000       0x5c lib/built-in.o
 .text.fdtdec_lookup
                0x00000000       0x4c lib/built-in.o
 .text.fdtdec_next_compatible
                0x00000000       0x10 lib/built-in.o
 .text.fdtdec_next_compatible_subnode
                0x00000000       0x64 lib/built-in.o
 .text.fdtdec_next_alias
                0x00000000       0xa0 lib/built-in.o
 .text.fdtdec_add_aliases_for_id
                0x00000000      0x2a0 lib/built-in.o
 .text.fdtdec_find_aliases_for_id
                0x00000000       0x44 lib/built-in.o
 .text.fdtdec_check_fdt
                0x00000000       0x10 lib/built-in.o
 .text.decode_timing_property
                0x00000000       0x80 lib/built-in.o
 .text.fdtdec_get_int_array_count
                0x00000000       0x60 lib/built-in.o
 .text.fdtdec_locate_array
                0x00000000       0x28 lib/built-in.o
 .text.fdtdec_get_bool
                0x00000000       0x18 lib/built-in.o
 .text.fdtdec_parse_phandle_with_args
                0x00000000      0x160 lib/built-in.o
 .text.fdtdec_get_child_count
                0x00000000       0x38 lib/built-in.o
 .text.fdtdec_get_byte_array
                0x00000000       0x48 lib/built-in.o
 .text.fdtdec_locate_byte_array
                0x00000000       0x24 lib/built-in.o
 .text.fdtdec_get_config_bool
                0x00000000       0x54 lib/built-in.o
 .text.fdtdec_decode_region
                0x00000000       0x50 lib/built-in.o
 .text.fdtdec_read_fmap_entry
                0x00000000       0xd0 lib/built-in.o
 .text.fdtdec_get_number
                0x00000000       0x44 lib/built-in.o
 .text.fdtdec_get_addr_size_fixed
                0x00000000       0xb8 lib/built-in.o
 .text.fdtdec_get_addr_size
                0x00000000       0x30 lib/built-in.o
 .text.fdtdec_get_addr
                0x00000000        0x8 lib/built-in.o
 .text.fdtdec_get_addr_size_auto_parent
                0x00000000       0x70 lib/built-in.o
 .text.fdtdec_get_addr_size_auto_noparent
                0x00000000       0x54 lib/built-in.o
 .text.fdt_get_resource
                0x00000000       0xe0 lib/built-in.o
 .text.fdt_get_named_resource
                0x00000000       0x40 lib/built-in.o
 .text.fdtdec_decode_memory_region
                0x00000000      0x150 lib/built-in.o
 .text.fdtdec_decode_display_timing
                0x00000000      0x2d4 lib/built-in.o
 .text.print_freq
                0x00000000      0x1b8 lib/built-in.o
 .text.crc32_wd_buf
                0x00000000       0x3c lib/built-in.o
 .text.copy_from_user
                0x00000000       0x10 lib/built-in.o
 .text.kmalloc  0x00000000       0x38 lib/built-in.o
 .text.get_mem  0x00000000       0x1c lib/built-in.o
 .text.kmem_cache_alloc
                0x00000000       0x10 lib/built-in.o
 .text.membuff_purge
                0x00000000       0x10 lib/built-in.o
 .text.membuff_putraw
                0x00000000       0xa8 lib/built-in.o
 .text.membuff_putbyte
                0x00000000       0x2c lib/built-in.o
 .text.membuff_getraw
                0x00000000       0x90 lib/built-in.o
 .text.membuff_getbyte
                0x00000000       0x30 lib/built-in.o
 .text.membuff_peekbyte
                0x00000000       0x2c lib/built-in.o
 .text.membuff_get
                0x00000000       0x80 lib/built-in.o
 .text.membuff_put
                0x00000000       0x5c lib/built-in.o
 .text.membuff_isempty
                0x00000000       0x18 lib/built-in.o
 .text.membuff_avail
                0x00000000       0x54 lib/built-in.o
 .text.membuff_size
                0x00000000        0xc lib/built-in.o
 .text.membuff_makecontig
                0x00000000       0x7c lib/built-in.o
 .text.membuff_free
                0x00000000       0x2c lib/built-in.o
 .text.membuff_readline
                0x00000000       0xb8 lib/built-in.o
 .text.membuff_extend_by
                0x00000000       0xc0 lib/built-in.o
 .text.membuff_init
                0x00000000       0x18 lib/built-in.o
 .text.membuff_new
                0x00000000       0x38 lib/built-in.o
 .text.membuff_uninit
                0x00000000       0x18 lib/built-in.o
 .text.membuff_dispose
                0x00000000       0x18 lib/built-in.o
 .text.strcasecmp
                0x00000000        0x8 lib/built-in.o
 .text.strspn   0x00000000       0x40 lib/built-in.o
 .text.strpbrk  0x00000000       0x3c lib/built-in.o
 .text.strtok   0x00000000       0x78 lib/built-in.o
 .text.strsep   0x00000000       0x34 lib/built-in.o
 .text.strswab  0x00000000       0x4c lib/built-in.o
 .text.memscan  0x00000000       0x2c lib/built-in.o
 .text.memchr_inv
                0x00000000      0x130 lib/built-in.o
 .text.get_ticks
                0x00000000       0x38 lib/built-in.o
 .text.timer_init
                0x00000000        0x8 lib/built-in.o
 .text.get_timer
                0x00000000       0x18 lib/built-in.o
 .text.__udelay
                0x00000000       0x8c lib/built-in.o
 .text.vsnprintf
                0x00000000        0x4 lib/built-in.o
 .text.scnprintf
                0x00000000       0x24 lib/built-in.o
 .text.__assert_fail
                0x00000000       0x14 lib/built-in.o
 .text.print_grouped_ull
                0x00000000       0x88 lib/built-in.o
 .text.str2off  0x00000000       0x3c lib/built-in.o
 .text.str2long
                0x00000000       0x3c lib/built-in.o
 .text.strmhz   0x00000000       0x70 lib/built-in.o
 .rodata.z_errmsg
                0x00000000       0x28 lib/built-in.o
 .rodata.crc7_syndrome_table
                0x00000000      0x100 lib/built-in.o
 .rodata.compat_names
                0x00000000       0x9c lib/built-in.o
 .rodata.names.4273
                0x00000000        0x3 lib/built-in.o
 .data          0x00000000        0x0 lib/built-in.o
 .data.cur      0x00000000        0x4 lib/built-in.o
 .data.current  0x00000000        0x4 lib/built-in.o
 .bss           0x00000000        0x0 lib/built-in.o
 .bss.___strtok
                0x00000000        0x4 lib/built-in.o
 .text          0x00000000        0x0 net/built-in.o
 .text.add_ip_checksums
                0x00000000       0x40 net/built-in.o
 .text.eth_init_state_only
                0x00000000       0x34 net/built-in.o
 .text.eth_is_active
                0x00000000       0x34 net/built-in.o
 .text.net_get_udp_handler
                0x00000000       0x10 net/built-in.o
 .text.random_port
                0x00000000       0x1c net/built-in.o
 .text.vlan_to_string
                0x00000000       0x4c net/built-in.o
 .text.getenv_vlan
                0x00000000       0x10 net/built-in.o
 .data          0x00000000        0x0 net/built-in.o
 .data.tftp_timeout_ms
                0x00000000        0x4 net/built-in.o
 .bss           0x00000000        0x0 net/built-in.o
 .bss.net_busy_flag
                0x00000000        0x4 net/built-in.o
 .text          0x00000000        0x0 test/dm/built-in.o
 .data          0x00000000        0x0 test/dm/built-in.o
 .bss           0x00000000        0x0 test/dm/built-in.o
 .text          0x00000000        0x0 arch/arm/lib/eabi_compat.o
 .data          0x00000000        0x0 arch/arm/lib/eabi_compat.o
 .bss           0x00000000        0x0 arch/arm/lib/eabi_compat.o
 .text.raise    0x00000000       0x1c arch/arm/lib/eabi_compat.o
 .text.__aeabi_unwind_cpp_pr0
                0x00000000        0x4 arch/arm/lib/eabi_compat.o
 .text.__aeabi_unwind_cpp_pr1
                0x00000000        0x4 arch/arm/lib/eabi_compat.o
 .text.__aeabi_memcpy
                0x00000000        0x4 arch/arm/lib/eabi_compat.o
 .text.__aeabi_memset
                0x00000000       0x10 arch/arm/lib/eabi_compat.o
 .rodata.str1.1
                0x00000000       0x1b arch/arm/lib/eabi_compat.o
 .debug_info    0x00000000      0x1ac arch/arm/lib/eabi_compat.o
 .debug_abbrev  0x00000000       0xda arch/arm/lib/eabi_compat.o
 .debug_loc     0x00000000       0xc6 arch/arm/lib/eabi_compat.o
 .debug_aranges
                0x00000000       0x40 arch/arm/lib/eabi_compat.o
 .debug_ranges  0x00000000       0x30 arch/arm/lib/eabi_compat.o
 .debug_line    0x00000000       0xe2 arch/arm/lib/eabi_compat.o
 .debug_str     0x00000000      0x1c8 arch/arm/lib/eabi_compat.o
 .comment       0x00000000       0x65 arch/arm/lib/eabi_compat.o
 .note.GNU-stack
                0x00000000        0x0 arch/arm/lib/eabi_compat.o
 .ARM.attributes
                0x00000000       0x2f arch/arm/lib/eabi_compat.o
 .debug_frame   0x00000000       0x68 arch/arm/lib/eabi_compat.o
 .text          0x00000000        0x0 arch/arm/lib/lib.a(ashldi3.o)
 .data          0x00000000        0x0 arch/arm/lib/lib.a(ashldi3.o)
 .bss           0x00000000        0x0 arch/arm/lib/lib.a(ashldi3.o)
 .text          0x00000000        0x0 arch/arm/lib/lib.a(lib1funcs.o)
 .data          0x00000000        0x0 arch/arm/lib/lib.a(lib1funcs.o)
 .bss           0x00000000        0x0 arch/arm/lib/lib.a(lib1funcs.o)
 .text.__umodsi3
                0x00000000       0xa0 arch/arm/lib/lib.a(lib1funcs.o)
 .text.__modsi3
                0x00000000       0xb8 arch/arm/lib/lib.a(lib1funcs.o)
 .text          0x00000000        0x0 arch/arm/lib/lib.a(lshrdi3.o)
 .data          0x00000000        0x0 arch/arm/lib/lib.a(lshrdi3.o)
 .bss           0x00000000        0x0 arch/arm/lib/lib.a(lshrdi3.o)
 .text          0x00000000        0x0 arch/arm/lib/lib.a(div0.o)
 .data          0x00000000        0x0 arch/arm/lib/lib.a(div0.o)
 .bss           0x00000000        0x0 arch/arm/lib/lib.a(div0.o)

Memory Configuration

Name             Origin             Length             Attributes
*default*        0x00000000         0xffffffff

Linker script and memory map

Address of section .text set to 0x4a000000
                0x00000000                . = 0x0
                0x00000000                . = ALIGN (0x4)

.text           0x4a000000    0x3dcf0
 *(.__image_copy_start)
 .__image_copy_start
                0x4a000000        0x0 arch/arm/lib/built-in.o
                0x4a000000                __image_copy_start
 *(.vectors)
 .vectors       0x4a000000      0x300 arch/arm/lib/built-in.o
                0x4a000000                _start
                0x4a000020                _undefined_instruction
                0x4a000024                _software_interrupt
                0x4a000028                _prefetch_abort
                0x4a00002c                _data_abort
                0x4a000030                _not_used
                0x4a000034                _irq
                0x4a000038                _fiq
                0x4a000040                IRQ_STACK_START_IN
 arch/arm/cpu/armv7/start.o(.text*)
 .text          0x4a000300       0xb0 arch/arm/cpu/armv7/start.o
                0x4a000300                reset
                0x4a000304                save_boot_params_ret
                0x4a000340                c_runtime_cpu_setup
                0x4a000350                save_boot_params
                0x4a000354                cpu_init_cp15
                0x4a0003a8                cpu_init_crit
 *(.text*)
 .text          0x4a0003b0      0x16c arch/arm/cpu/armv7/built-in.o
                0x4a0003b0                __v7_flush_dcache_all
                0x4a000444                v7_flush_dcache_all
                0x4a000454                __v7_invalidate_dcache_all
                0x4a0004e8                v7_invalidate_dcache_all
                0x4a0004f8                lowlevel_init
 .text.v7_dcache_maint_range
                0x4a00051c       0x78 arch/arm/cpu/armv7/built-in.o
 .text.invalidate_icache_all
                0x4a000594       0x18 arch/arm/cpu/armv7/built-in.o
                0x4a000594                invalidate_icache_all
 .text.v7_outer_cache_enable
                0x4a0005ac        0x4 arch/arm/cpu/armv7/built-in.o
                0x4a0005ac                v7_outer_cache_enable
 .text.v7_outer_cache_disable
                0x4a0005b0        0x4 arch/arm/cpu/armv7/built-in.o
                0x4a0005b0                v7_outer_cache_disable
 .text.v7_outer_cache_flush_all
                0x4a0005b4        0x4 arch/arm/cpu/armv7/built-in.o
                0x4a0005b4                v7_outer_cache_flush_all
 .text.flush_dcache_all
                0x4a0005b8       0x10 arch/arm/cpu/armv7/built-in.o
                0x4a0005b8                flush_dcache_all
 .text.v7_outer_cache_inval_all
                0x4a0005c8        0x4 arch/arm/cpu/armv7/built-in.o
                0x4a0005c8                v7_outer_cache_inval_all
 .text.invalidate_dcache_all
                0x4a0005cc       0x10 arch/arm/cpu/armv7/built-in.o
                0x4a0005cc                invalidate_dcache_all
 .text.arm_init_before_mmu
                0x4a0005dc       0x28 arch/arm/cpu/armv7/built-in.o
                0x4a0005dc                arm_init_before_mmu
 .text.v7_outer_cache_flush_range
                0x4a000604        0x4 arch/arm/cpu/armv7/built-in.o
                0x4a000604                v7_outer_cache_flush_range
 .text.flush_dcache_range
                0x4a000608       0x30 arch/arm/cpu/armv7/built-in.o
                0x4a000608                flush_dcache_range
 .text.v7_outer_cache_inval_range
                0x4a000638        0x4 arch/arm/cpu/armv7/built-in.o
                0x4a000638                v7_outer_cache_inval_range
 .text.invalidate_dcache_range
                0x4a00063c       0x30 arch/arm/cpu/armv7/built-in.o
                0x4a00063c                invalidate_dcache_range
 .text.cpu_cache_initialization
                0x4a00066c        0x4 arch/arm/cpu/armv7/built-in.o
                0x4a00066c                cpu_cache_initialization
 .text.cleanup_before_linux_select
                0x4a000670       0x4c arch/arm/cpu/armv7/built-in.o
                0x4a000670                cleanup_before_linux_select
 .text.cleanup_before_linux
                0x4a0006bc        0x8 arch/arm/cpu/armv7/built-in.o
                0x4a0006bc                cleanup_before_linux
 .text.get_gicd_base_address
                0x4a0006c4       0x34 arch/arm/cpu/armv7/built-in.o
 .text.psci_board_init
                0x4a0006f8        0x4 arch/arm/cpu/armv7/built-in.o
                0x4a0006f8                psci_board_init
 .text.armv7_init_nonsec
                0x4a0006fc       0x84 arch/arm/cpu/armv7/built-in.o
                0x4a0006fc                armv7_init_nonsec
 .text.armv7_apply_memory_carveout
                0x4a000780        0x8 arch/arm/cpu/armv7/built-in.o
                0x4a000780                armv7_apply_memory_carveout
 .text.psci_update_dt
                0x4a000788       0x58 arch/arm/cpu/armv7/built-in.o
                0x4a000788                psci_update_dt
 .text.timer_init
                0x4a0007e0       0x28 arch/arm/cpu/armv7/built-in.o
                0x4a0007e0                timer_init
 .text.get_timer_masked
                0x4a000808       0x5c arch/arm/cpu/armv7/built-in.o
                0x4a000808                get_timer_masked
 .text.get_timer
                0x4a000864       0x14 arch/arm/cpu/armv7/built-in.o
                0x4a000864                get_timer
 .text.__udelay
                0x4a000878       0x54 arch/arm/cpu/armv7/built-in.o
                0x4a000878                __udelay
 .text.get_ticks
                0x4a0008cc       0x10 arch/arm/cpu/armv7/built-in.o
                0x4a0008cc                get_ticks
 .text.get_tbclk
                0x4a0008dc        0x8 arch/arm/cpu/armv7/built-in.o
                0x4a0008dc                get_tbclk
 .text.tzpc_init
                0x4a0008e4       0x30 arch/arm/cpu/armv7/built-in.o
                0x4a0008e4                tzpc_init
 .text          0x4a000914       0x90 arch/arm/lib/built-in.o
                0x4a000914                _main
 .text.relocate_vectors
                0x4a0009a4       0x70 arch/arm/lib/built-in.o
                0x4a0009a4                relocate_vectors
                0x4a0009b0                relocate_code
 .text.arch_fixup_fdt
                0x4a000a14       0x64 arch/arm/lib/built-in.o
                0x4a000a14                arch_fixup_fdt
 .text.setup_initrd_tag.isra.1
                0x4a000a78       0x38 arch/arm/lib/built-in.o
 .text.arch_lmb_reserve
                0x4a000ab0       0x24 arch/arm/lib/built-in.o
                0x4a000ab0                arch_lmb_reserve
 .text.setup_board_tags
                0x4a000ad4        0x4 arch/arm/lib/built-in.o
                0x4a000ad4                setup_board_tags
 .text.boot_prep_linux
                0x4a000ad8      0x1ac arch/arm/lib/built-in.o
 .text.armv7_boot_nonsec_default
                0x4a000c84        0x8 arch/arm/lib/built-in.o
                0x4a000c84                armv7_boot_nonsec_default
 .text.armv7_boot_nonsec
                0x4a000c8c       0x5c arch/arm/lib/built-in.o
                0x4a000c8c                armv7_boot_nonsec
 .text.boot_jump_linux
                0x4a000ce8       0xe8 arch/arm/lib/built-in.o
 .text.do_bootm_linux
                0x4a000dd0       0x5c arch/arm/lib/built-in.o
                0x4a000dd0                do_bootm_linux
 .text.boot_prep_vxworks
                0x4a000e2c       0x5c arch/arm/lib/built-in.o
                0x4a000e2c                boot_prep_vxworks
 .text.boot_jump_vxworks
                0x4a000e88       0x14 arch/arm/lib/built-in.o
                0x4a000e88                boot_jump_vxworks
 .text.bootz_setup
                0x4a000e9c       0x7c arch/arm/lib/built-in.o
                0x4a000e9c                bootz_setup
 .text.arch_reserve_stacks
                0x4a000f18       0x1c arch/arm/lib/built-in.o
                0x4a000f18                arch_reserve_stacks
 .text.interrupt_init
                0x4a000f34       0x1c arch/arm/lib/built-in.o
                0x4a000f34                interrupt_init
 .text.enable_interrupts
                0x4a000f50        0x4 arch/arm/lib/built-in.o
                0x4a000f50                enable_interrupts
 .text.disable_interrupts
                0x4a000f54        0x8 arch/arm/lib/built-in.o
                0x4a000f54                disable_interrupts
 .text.bad_mode
                0x4a000f5c       0x10 arch/arm/lib/built-in.o
                0x4a000f5c                bad_mode
 .text.show_regs
                0x4a000f6c      0x174 arch/arm/lib/built-in.o
                0x4a000f6c                show_regs
 .text.do_undefined_instruction
                0x4a0010e0       0x24 arch/arm/lib/built-in.o
                0x4a0010e0                do_undefined_instruction
 .text.do_software_interrupt
                0x4a001104       0x24 arch/arm/lib/built-in.o
                0x4a001104                do_software_interrupt
 .text.do_prefetch_abort
                0x4a001128       0x24 arch/arm/lib/built-in.o
                0x4a001128                do_prefetch_abort
 .text.do_data_abort
                0x4a00114c       0x24 arch/arm/lib/built-in.o
                0x4a00114c                do_data_abort
 .text.do_not_used
                0x4a001170       0x24 arch/arm/lib/built-in.o
                0x4a001170                do_not_used
 .text.do_fiq   0x4a001194       0x24 arch/arm/lib/built-in.o
                0x4a001194                do_fiq
 .text.do_irq   0x4a0011b8       0x24 arch/arm/lib/built-in.o
                0x4a0011b8                do_irq
 .text.reset_misc
                0x4a0011dc        0x4 arch/arm/lib/built-in.o
                0x4a0011dc                reset_misc
 .text.do_reset
                0x4a0011e0       0x30 arch/arm/lib/built-in.o
                0x4a0011e0                do_reset
 .text.flush_cache
                0x4a001210        0x8 arch/arm/lib/built-in.o
                0x4a001210                flush_cache
 .text.check_cache_range
                0x4a001218       0x3c arch/arm/lib/built-in.o
                0x4a001218                check_cache_range
 .text.cp_delay
                0x4a001254       0x30 arch/arm/lib/built-in.o
 .text.cache_disable
                0x4a001284       0x48 arch/arm/lib/built-in.o
 .text.arm_init_domains
                0x4a0012cc        0x4 arch/arm/lib/built-in.o
                0x4a0012cc                arm_init_domains
 .text.set_section_dcache
                0x4a0012d0       0x14 arch/arm/lib/built-in.o
                0x4a0012d0                set_section_dcache
 .text.dram_bank_mmu_setup
                0x4a0012e4       0x48 arch/arm/lib/built-in.o
                0x4a0012e4                dram_bank_mmu_setup
 .text.cache_enable
                0x4a00132c       0x8c arch/arm/lib/built-in.o
 .text.icache_enable
                0x4a0013b8        0x8 arch/arm/lib/built-in.o
                0x4a0013b8                icache_enable
 .text.icache_disable
                0x4a0013c0        0x8 arch/arm/lib/built-in.o
                0x4a0013c0                icache_disable
 .text.dcache_enable
                0x4a0013c8        0x8 arch/arm/lib/built-in.o
                0x4a0013c8                dcache_enable
 .text.dcache_disable
                0x4a0013d0        0x8 arch/arm/lib/built-in.o
                0x4a0013d0                dcache_disable
 .text.dcache_status
                0x4a0013d8        0xc arch/arm/lib/built-in.o
                0x4a0013d8                dcache_status
 .text.fdt_psci
                0x4a0013e4      0x270 arch/arm/lib/built-in.o
                0x4a0013e4                fdt_psci
 .text.s_init   0x4a001654       0x6c arch/arm/mach-sunxi/built-in.o
                0x4a001654                s_init
 .text.reset_cpu
                0x4a0016c0       0x2c arch/arm/mach-sunxi/built-in.o
                0x4a0016c0                reset_cpu
 .text.enable_caches
                0x4a0016ec        0x4 arch/arm/mach-sunxi/built-in.o
                0x4a0016ec                enable_caches
 .text.clock_init_sec
                0x4a0016f0       0x1c arch/arm/mach-sunxi/built-in.o
                0x4a0016f4                clock_init_sec
 .text.clock_init
                0x4a00170c       0x14 arch/arm/mach-sunxi/built-in.o
                0x4a00170c                clock_init
 .text.clock_twi_onoff
                0x4a001720       0x80 arch/arm/mach-sunxi/built-in.o
                0x4a001720                clock_twi_onoff
 .text.sunxi_get_sram_id
                0x4a0017a0       0x2c arch/arm/mach-sunxi/built-in.o
                0x4a0017a0                sunxi_get_sram_id
 .text.print_cpuinfo
                0x4a0017cc       0x20 arch/arm/mach-sunxi/built-in.o
                0x4a0017cc                print_cpuinfo
 .text.sunxi_get_sid
                0x4a0017ec       0x40 arch/arm/mach-sunxi/built-in.o
                0x4a0017ec                sunxi_get_sid
 .text.sunxi_gpio_set_cfgbank
                0x4a00182c       0x28 arch/arm/mach-sunxi/built-in.o
                0x4a00182c                sunxi_gpio_set_cfgbank
 .text.sunxi_gpio_set_cfgpin
                0x4a001854       0x38 arch/arm/mach-sunxi/built-in.o
                0x4a001854                sunxi_gpio_set_cfgpin
 .text.sunxi_gpio_get_cfgbank
                0x4a00188c       0x20 arch/arm/mach-sunxi/built-in.o
                0x4a00188c                sunxi_gpio_get_cfgbank
 .text.sunxi_gpio_set_drv
                0x4a0018ac       0x5c arch/arm/mach-sunxi/built-in.o
                0x4a0018ac                sunxi_gpio_set_drv
 .text.sunxi_gpio_set_pull
                0x4a001908       0x5c arch/arm/mach-sunxi/built-in.o
                0x4a001908                sunxi_gpio_set_pull
 .text.sunxi_usb_phy_init
                0x4a001964       0x80 arch/arm/mach-sunxi/built-in.o
                0x4a001964                sunxi_usb_phy_init
 .text.sunxi_usb_phy_exit
                0x4a0019e4       0x58 arch/arm/mach-sunxi/built-in.o
                0x4a0019e4                sunxi_usb_phy_exit
 .text.sunxi_usb_phy_power_on
                0x4a001a3c       0x58 arch/arm/mach-sunxi/built-in.o
                0x4a001a3c                sunxi_usb_phy_power_on
 .text.sunxi_usb_phy_probe
                0x4a001a94      0x12c arch/arm/mach-sunxi/built-in.o
                0x4a001a94                sunxi_usb_phy_probe
 .text.prcm_apb0_enable
                0x4a001bc0       0x24 arch/arm/mach-sunxi/built-in.o
                0x4a001bc0                prcm_apb0_enable
 .text.prcm_apb0_disable
                0x4a001be4       0x28 arch/arm/mach-sunxi/built-in.o
                0x4a001be4                prcm_apb0_disable
 .text.clock_init_uart
                0x4a001c0c       0x30 arch/arm/mach-sunxi/built-in.o
                0x4a001c0c                clock_init_uart
 .text.clock_get_pll6
                0x4a001c3c       0x38 arch/arm/mach-sunxi/built-in.o
                0x4a001c3c                clock_get_pll6
 .text.setup_environment
                0x4a001c74      0x154 board/sunxi/built-in.o
 .text.mmc_pinmux_setup
                0x4a001dc8      0x184 board/sunxi/built-in.o
 .text.board_init
                0x4a001f4c       0x78 board/sunxi/built-in.o
                0x4a001f4c                board_init
 .text.dram_init
                0x4a001fc4       0x20 board/sunxi/built-in.o
                0x4a001fc4                dram_init
 .text.board_mmc_init
                0x4a001fe4       0x60 board/sunxi/built-in.o
                0x4a001fe4                board_mmc_init
 .text.i2c_init_board
                0x4a002044       0x2c board/sunxi/built-in.o
                0x4a002044                i2c_init_board
 .text.get_board_serial
                0x4a002070       0x38 board/sunxi/built-in.o
                0x4a002070                get_board_serial
 .text.misc_init_r
                0x4a0020a8       0xe8 board/sunxi/built-in.o
                0x4a0020a8                misc_init_r
 .text.ft_board_setup
                0x4a002190       0x10 board/sunxi/built-in.o
                0x4a002190                ft_board_setup
 .text.do_go_exec
                0x4a0021a0       0x18 cmd/built-in.o
                0x4a0021a0                do_go_exec
 .text.do_go    0x4a0021b8       0x6c cmd/built-in.o
 .text.image_info
                0x4a002224       0xd0 cmd/built-in.o
 .text.do_bootd
                0x4a0022f4       0x20 cmd/built-in.o
                0x4a0022f4                do_bootd
 .text.do_bootm
                0x4a002314      0x100 cmd/built-in.o
                0x4a002314                do_bootm
 .text.do_iminfo
                0x4a002414       0x60 cmd/built-in.o
 .text.bootm_maybe_autostart
                0x4a002474       0x74 cmd/built-in.o
                0x4a002474                bootm_maybe_autostart
 .text.do_help  0x4a0024e8       0x44 cmd/built-in.o
 .text.do_version
                0x4a00252c       0x38 cmd/built-in.o
 .text.source   0x4a002564       0xdc cmd/built-in.o
                0x4a002564                source
 .text.do_source
                0x4a002640       0x44 cmd/built-in.o
 .text.print_num
                0x4a002684       0x18 cmd/built-in.o
 .text.do_bdinfo
                0x4a00269c       0xe0 cmd/built-in.o
 .text.bootefi_open_dp
                0x4a00277c       0x14 cmd/built-in.o
 .text.do_bootefi_exec
                0x4a002790      0x27c cmd/built-in.o
 .text.do_bootefi
                0x4a002a0c       0x8c cmd/built-in.o
 .text.efi_set_bootdev
                0x4a002a98      0x154 cmd/built-in.o
                0x4a002a98                efi_set_bootdev
 .text.do_bootz
                0x4a002bec       0xf8 cmd/built-in.o
                0x4a002bec                do_bootz
 .text.do_coninfo
                0x4a002ce4       0xac cmd/built-in.o
 .text.do_echo  0x4a002d90       0xc0 cmd/built-in.o
 .text.load_elf_image_shdr
                0x4a002e50       0x90 cmd/built-in.o
 .text.valid_elf_image
                0x4a002ee0       0x4c cmd/built-in.o
                0x4a002ee0                valid_elf_image
 .text.do_bootvx
                0x4a002f2c      0x348 cmd/built-in.o
                0x4a002f2c                do_bootvx
 .text.do_bootelf
                0x4a003274      0x1a8 cmd/built-in.o
                0x4a003274                do_bootelf
 .text.do_exit  0x4a00341c       0x30 cmd/built-in.o
 .text.do_ext4_ls
                0x4a00344c       0x14 cmd/built-in.o
                0x4a00344c                do_ext4_ls
 .text.do_ext4_load
                0x4a003460       0x14 cmd/built-in.o
                0x4a003460                do_ext4_load
 .text.do_ext4_size
                0x4a003474       0x14 cmd/built-in.o
                0x4a003474                do_ext4_size
 .text.do_ext2ls
                0x4a003488       0x14 cmd/built-in.o
 .text.do_ext2load
                0x4a00349c       0x14 cmd/built-in.o
                0x4a00349c                do_ext2load
 .text.do_fat_fswrite
                0x4a0034b0      0x108 cmd/built-in.o
 .text.do_fat_ls
                0x4a0035b8       0x14 cmd/built-in.o
 .text.do_fat_fsload
                0x4a0035cc       0x14 cmd/built-in.o
                0x4a0035cc                do_fat_fsload
 .text.do_fat_size
                0x4a0035e0       0x14 cmd/built-in.o
                0x4a0035e0                do_fat_size
 .text.do_fat_fsinfo
                0x4a0035f4       0x90 cmd/built-in.o
 .text.fdt_valid
                0x4a003684       0xc4 cmd/built-in.o
 .text.is_printable_string
                0x4a003748       0x98 cmd/built-in.o
 .text.print_data
                0x4a0037e0      0x174 cmd/built-in.o
 .text.set_working_fdt_addr
                0x4a003954       0x1c cmd/built-in.o
                0x4a003954                set_working_fdt_addr
 .text.do_fdt   0x4a003970      0xfd8 cmd/built-in.o
 .text.do_fstype_wrapper
                0x4a004948        0x4 cmd/built-in.o
 .text.do_ls_wrapper
                0x4a00494c       0x14 cmd/built-in.o
 .text.do_save_wrapper
                0x4a004960       0x14 cmd/built-in.o
 .text.do_load_wrapper
                0x4a004974       0x60 cmd/built-in.o
 .text.do_size_wrapper
                0x4a0049d4       0x14 cmd/built-in.o
 .text.gpio_get_description
                0x4a0049e8       0xd4 cmd/built-in.o
 .text.do_gpio  0x4a004abc      0x37c cmd/built-in.o
 .text.do_i2c   0x4a004e38       0x60 cmd/built-in.o
 .text.i2c_report_err
                0x4a004e98       0x38 cmd/built-in.o
 .text.do_i2c_bus_speed
                0x4a004ed0       0x78 cmd/built-in.o
 .text.do_i2c_reset
                0x4a004f48       0x30 cmd/built-in.o
 .text.do_i2c_probe
                0x4a004f78       0x9c cmd/built-in.o
 .text.do_i2c_bus_num
                0x4a005014       0xbc cmd/built-in.o
 .text.do_i2c_show_bus
                0x4a0050d0       0xe4 cmd/built-in.o
 .text.get_alen.constprop.4
                0x4a0051b4       0x44 cmd/built-in.o
 .text.do_i2c_crc
                0x4a0051f8      0x114 cmd/built-in.o
 .text.mod_i2c_mem.isra.3
                0x4a00530c      0x1e0 cmd/built-in.o
 .text.do_i2c_nm
                0x4a0054ec        0x8 cmd/built-in.o
 .text.do_i2c_mm
                0x4a0054f4        0x8 cmd/built-in.o
 .text.do_i2c_md
                0x4a0054fc      0x1c4 cmd/built-in.o
 .text.do_i2c_loop
                0x4a0056c0       0xd4 cmd/built-in.o
 .text.do_i2c_read
                0x4a005794       0xb0 cmd/built-in.o
 .text.do_i2c_mw
                0x4a005844       0xec cmd/built-in.o
 .text.do_i2c_write
                0x4a005930      0x144 cmd/built-in.o
 .text.evalexp  0x4a005a74       0x68 cmd/built-in.o
 .text.evalstr  0x4a005adc       0x70 cmd/built-in.o
 .text.binary_test
                0x4a005b4c      0x19c cmd/built-in.o
 .text.do_itest
                0x4a005ce8       0x98 cmd/built-in.o
 .text.bin_data_init
                0x4a005d80       0x2c cmd/built-in.o
 .text.k_data_save
                0x4a005dac       0x4c cmd/built-in.o
 .text.k_data_restore
                0x4a005df8       0x4c cmd/built-in.o
 .text.load_serial_ymodem
                0x4a005e44       0xe0 cmd/built-in.o
 .text.getcxmodem
                0x4a005f24       0x20 cmd/built-in.o
 .text.load_serial
                0x4a005f44      0x1dc cmd/built-in.o
 .text.do_load_serial
                0x4a006120       0xdc cmd/built-in.o
 .text.bin_data_char
                0x4a0061fc       0x28 cmd/built-in.o
 .text.s1_sendpacket.constprop.1
                0x4a006224       0x50 cmd/built-in.o
 .text.chk1.constprop.2
                0x4a006274       0x30 cmd/built-in.o
 .text.do_load_serial_bin
                0x4a0062a4      0x794 cmd/built-in.o
 .text.do_mem_loop
                0x4a006a38      0x104 cmd/built-in.o
 .text.do_mem_mw
                0x4a006b3c       0xb8 cmd/built-in.o
 .text.do_mem_base
                0x4a006bf4       0x40 cmd/built-in.o
 .text.do_mem_cmp
                0x4a006c34      0x160 cmd/built-in.o
 .text.do_mem_crc
                0x4a006d94       0x44 cmd/built-in.o
 .text.do_mem_cp
                0x4a006dd8       0xdc cmd/built-in.o
 .text.do_mem_md
                0x4a006eb4       0xe4 cmd/built-in.o
 .text.mod_mem.isra.2
                0x4a006f98      0x15c cmd/built-in.o
 .text.do_mem_nm
                0x4a0070f4        0x8 cmd/built-in.o
 .text.do_mem_mm
                0x4a0070fc        0x8 cmd/built-in.o
 .text.extract_range
                0x4a007104       0xd4 cmd/built-in.o
 .text.do_mii   0x4a0071d8      0x8d0 cmd/built-in.o
 .text.do_mdio  0x4a007aa8      0x4cc cmd/built-in.o
 .text.do_sleep
                0x4a007f74       0xd0 cmd/built-in.o
 .text.do_mmcops
                0x4a008044       0xb8 cmd/built-in.o
 .text.do_mmc_list
                0x4a0080fc       0x14 cmd/built-in.o
 .text.init_mmc_device
                0x4a008110       0x50 cmd/built-in.o
 .text.do_mmc_rescan
                0x4a008160       0x24 cmd/built-in.o
 .text.do_mmcinfo
                0x4a008184      0x378 cmd/built-in.o
 .text.do_mmc_hwpartition
                0x4a0084fc      0x4f0 cmd/built-in.o
 .text.do_mmc_dev
                0x4a0089ec      0x144 cmd/built-in.o
 .text.do_mmc_part
                0x4a008b30       0x68 cmd/built-in.o
 .text.do_mmc_erase
                0x4a008b98       0xf0 cmd/built-in.o
 .text.do_mmc_write
                0x4a008c88      0x108 cmd/built-in.o
 .text.do_mmc_read
                0x4a008d90       0xec cmd/built-in.o
 .text.do_mmc_setdsr
                0x4a008e7c       0xa8 cmd/built-in.o
 .text.netboot_common
                0x4a008f24      0x29c cmd/built-in.o
 .text.do_nfs   0x4a0091c0        0xc cmd/built-in.o
 .text.do_dhcp  0x4a0091cc        0xc cmd/built-in.o
 .text.do_bootp
                0x4a0091d8        0xc cmd/built-in.o
 .text.do_tftpb
                0x4a0091e4       0x40 cmd/built-in.o
                0x4a0091e4                do_tftpb
 .text.do_ping  0x4a009224       0x78 cmd/built-in.o
 .text.do_part  0x4a00929c      0x3a4 cmd/built-in.o
 .text.eol_or_eof
                0x4a009640       0x24 cmd/built-in.o
 .text.label_print
                0x4a009664       0x1c cmd/built-in.o
 .text.get_string
                0x4a009680       0xcc cmd/built-in.o
 .text.label_destroy
                0x4a00974c       0x74 cmd/built-in.o
 .text.destroy_pxe_menu
                0x4a0097c0       0x5c cmd/built-in.o
 .text.get_token
                0x4a00981c      0x120 cmd/built-in.o
 .text.parse_sliteral
                0x4a00993c       0x50 cmd/built-in.o
 .text.parse_integer
                0x4a00998c       0x6c cmd/built-in.o
 .text.do_get_any
                0x4a0099f8       0x40 cmd/built-in.o
 .text.do_get_fat
                0x4a009a38       0x3c cmd/built-in.o
 .text.do_get_ext2
                0x4a009a74       0x3c cmd/built-in.o
 .text.do_pxe   0x4a009ab0       0x70 cmd/built-in.o
 .text.do_get_tftp
                0x4a009b20       0x44 cmd/built-in.o
 .text.from_env
                0x4a009b64       0x2c cmd/built-in.o
 .text.get_relfile
                0x4a009b90      0x138 cmd/built-in.o
 .text.get_relfile_envaddr
                0x4a009cc8       0x4c cmd/built-in.o
 .text.get_pxe_file
                0x4a009d14       0x54 cmd/built-in.o
 .text.get_pxelinux_path
                0x4a009d68       0x80 cmd/built-in.o
 .text.handle_include
                0x4a009de8       0xa4 cmd/built-in.o
 .text.parse_pxefile_top
                0x4a009e8c      0x474 cmd/built-in.o
 .text.parse_pxefile
                0x4a00a300       0x6c cmd/built-in.o
 .text.format_mac_pxe.constprop.11
                0x4a00a36c       0x74 cmd/built-in.o
 .text.do_pxe_get
                0x4a00a3e0      0x168 cmd/built-in.o
 .text.label_boot
                0x4a00a548      0x5c8 cmd/built-in.o
 .text.handle_pxe_menu
                0x4a00ab10      0x168 cmd/built-in.o
 .text.do_sysboot
                0x4a00ac78      0x1e4 cmd/built-in.o
 .text.do_pxe_boot
                0x4a00ae5c       0xe0 cmd/built-in.o
 .text.substitute
                0x4a00af3c       0xe4 cmd/built-in.o
 .text.regex_sub
                0x4a00b020      0x354 cmd/built-in.o
 .text.get_arg.part.3
                0x4a00b374       0x3c cmd/built-in.o
 .text.do_setexpr
                0x4a00b3b0      0x1d0 cmd/built-in.o
 .text.do_false
                0x4a00b580        0x8 cmd/built-in.o
 .text.do_true  0x4a00b588        0x8 cmd/built-in.o
 .text.do_test  0x4a00b590      0x330 cmd/built-in.o
 .text.usb_get_class_desc
                0x4a00b8c0       0xac cmd/built-in.o
 .text.do_usbboot
                0x4a00b96c        0xc cmd/built-in.o
 .text.usb_display_class_sub
                0x4a00b978      0x174 cmd/built-in.o
 .text.usb_for_each_root_dev
                0x4a00baec       0x68 cmd/built-in.o
 .text.usb_display_string
                0x4a00bb54       0x44 cmd/built-in.o
 .text.usb_display_config
                0x4a00bb98      0x218 cmd/built-in.o
 .text.usb_find_device
                0x4a00bdb0       0xac cmd/built-in.o
 .text.usb_show_tree_graph
                0x4a00be5c      0x1d0 cmd/built-in.o
 .text.usb_show_subtree
                0x4a00c02c       0x30 cmd/built-in.o
 .text.usb_display_desc.part.6
                0x4a00c05c      0x11c cmd/built-in.o
 .text.usb_show_info
                0x4a00c178       0x60 cmd/built-in.o
 .text.usb_show_tree
                0x4a00c1d8        0xc cmd/built-in.o
                0x4a00c1d8                usb_show_tree
 .text.do_usb   0x4a00c1e4      0x750 cmd/built-in.o
 .text.common_diskboot
                0x4a00c934      0x230 cmd/built-in.o
                0x4a00c934                common_diskboot
 .text.do_imgextract
                0x4a00cb64      0x298 cmd/built-in.o
 .text.do_env_delete
                0x4a00cdfc       0xa8 cmd/built-in.o
 .text.do_env_exists
                0x4a00cea4       0x60 cmd/built-in.o
 .text.env_print
                0x4a00cf04       0xc8 cmd/built-in.o
 .text.do_env_print
                0x4a00cfcc       0xc4 cmd/built-in.o
 .text.do_env   0x4a00d090       0x60 cmd/built-in.o
 .text.do_env_import
                0x4a00d0f0      0x294 cmd/built-in.o
 .text.do_env_default
                0x4a00d384       0xb4 cmd/built-in.o
 .text.do_env_save
                0x4a00d438       0x2c cmd/built-in.o
 .text._do_env_set.isra.1
                0x4a00d464      0x1d8 cmd/built-in.o
 .text.do_env_set
                0x4a00d63c       0x20 cmd/built-in.o
 .text.get_env_id
                0x4a00d65c       0x10 cmd/built-in.o
                0x4a00d65c                get_env_id
 .text.setenv   0x4a00d66c       0x5c cmd/built-in.o
                0x4a00d66c                setenv
 .text.setenv_ulong
                0x4a00d6c8       0x20 cmd/built-in.o
                0x4a00d6c8                setenv_ulong
 .text.setenv_hex
                0x4a00d6e8       0x34 cmd/built-in.o
                0x4a00d6e8                setenv_hex
 .text.do_env_export
                0x4a00d71c      0x26c cmd/built-in.o
 .text.envmatch
                0x4a00d988       0x6c cmd/built-in.o
                0x4a00d988                envmatch
 .text.getenv_f
                0x4a00d9f4       0xbc cmd/built-in.o
                0x4a00d9f4                getenv_f
 .text.getenv   0x4a00dab0       0x78 cmd/built-in.o
                0x4a00dab0                getenv
 .text.do_env_edit.part.3
                0x4a00db28       0xa0 cmd/built-in.o
 .text.do_env_edit
                0x4a00dbc8       0x28 cmd/built-in.o
 .text.getenv_ulong
                0x4a00dbf0       0x30 cmd/built-in.o
                0x4a00dbf0                getenv_ulong
 .text.getenv_hex
                0x4a00dc20       0x34 cmd/built-in.o
                0x4a00dc20                getenv_hex
 .text.board_init_f_alloc_reserve
                0x4a00dc54       0x10 common/built-in.o
                0x4a00dc54                board_init_f_alloc_reserve
 .text.board_init_f_init_reserve
                0x4a00dc64       0x20 common/built-in.o
                0x4a00dc64                board_init_f_init_reserve
 .text.show_boot_progress
                0x4a00dc84        0x8 common/built-in.o
                0x4a00dc84                show_boot_progress
 .text.main_loop
                0x4a00dc8c       0x4c common/built-in.o
                0x4a00dc8c                main_loop
 .text.dummy    0x4a00dcd8        0x4 common/built-in.o
 .text.get_version
                0x4a00dcdc        0x8 common/built-in.o
                0x4a00dcdc                get_version
 .text.jumptable_init
                0x4a00dce4      0x1e0 common/built-in.o
                0x4a00dce4                jumptable_init
 .text.hash_command
                0x4a00dec4       0xb8 common/built-in.o
                0x4a00dec4                hash_command
 .text.b_reset  0x4a00df7c       0x1c common/built-in.o
 .text.static_get
                0x4a00df98       0x1c common/built-in.o
 .text.static_peek
                0x4a00dfb4        0xc common/built-in.o
 .text.file_peek
                0x4a00dfc0        0xc common/built-in.o
 .text.mapset   0x4a00dfcc       0x20 common/built-in.o
 .text.syntax_err
                0x4a00dfec        0xc common/built-in.o
 .text.do_showvar
                0x4a00dff8       0xf0 common/built-in.o
 .text.free_pipe_list
                0x4a00e0e8       0xe8 common/built-in.o
 .text.b_addchr
                0x4a00e1d0       0x78 common/built-in.o
 .text.b_addqchr
                0x4a00e248       0x4c common/built-in.o
 .text.is_assignment.part.0
                0x4a00e294       0x30 common/built-in.o
 .text.xmalloc  0x4a00e2c4       0x20 common/built-in.o
 .text.new_pipe
                0x4a00e2e4       0x28 common/built-in.o
 .text.file_get
                0x4a00e30c      0x1dc common/built-in.o
 .text.xrealloc
                0x4a00e4e8       0x20 common/built-in.o
 .text.done_command
                0x4a00e508       0x8c common/built-in.o
 .text.done_pipe
                0x4a00e594       0x48 common/built-in.o
 .text.done_word
                0x4a00e5dc      0x2d8 common/built-in.o
 .text.get_local_var
                0x4a00e8b4       0x94 common/built-in.o
                0x4a00e8b4                get_local_var
 .text.set_local_var
                0x4a00e948      0x1c8 common/built-in.o
                0x4a00e948                set_local_var
 .text.insert_var_value_sub
                0x4a00eb10      0x2c0 common/built-in.o
 .text.parse_string_outer
                0x4a00edd0       0xf0 common/built-in.o
                0x4a00edd0                parse_string_outer
 .text.run_list_real
                0x4a00eec0      0x87c common/built-in.o
 .text.parse_stream_outer
                0x4a00f73c      0x6f8 common/built-in.o
 .text.parse_file_outer
                0x4a00fe34       0x44 common/built-in.o
                0x4a00fe34                parse_file_outer
 .text.u_boot_hush_start
                0x4a00fe78       0x54 common/built-in.o
                0x4a00fe78                u_boot_hush_start
 .text.bootdelay_process
                0x4a00fecc       0xbc common/built-in.o
                0x4a00fecc                bootdelay_process
 .text.autoboot_command
                0x4a00ff88       0xf4 common/built-in.o
                0x4a00ff88                autoboot_command
 .text.display_text_info
                0x4a01007c        0x8 common/built-in.o
 .text.setup_mon_len
                0x4a010084       0x20 common/built-in.o
 .text.arch_cpu_init
                0x4a0100a4        0x8 common/built-in.o
                0x4a0100a4                arch_cpu_init
 .text.reserve_round_4k
                0x4a0100ac       0x18 common/built-in.o
 .text.reserve_mmu
                0x4a0100c4       0x38 common/built-in.o
 .text.reserve_trace
                0x4a0100fc        0x8 common/built-in.o
 .text.reserve_uboot
                0x4a010104       0x30 common/built-in.o
 .text.reserve_malloc
                0x4a010134       0x18 common/built-in.o
 .text.setup_machine
                0x4a01014c        0x8 common/built-in.o
 .text.reserve_global_data
                0x4a010154       0x1c common/built-in.o
 .text.reserve_fdt
                0x4a010170       0x4c common/built-in.o
 .text.display_new_sp
                0x4a0101bc        0x8 common/built-in.o
 .text.initf_console_record
                0x4a0101c4        0x8 common/built-in.o
 .text.reserve_arch
                0x4a0101cc        0x8 common/built-in.o
                0x4a0101cc                reserve_arch
 .text.arch_cpu_init_dm
                0x4a0101d4        0x8 common/built-in.o
                0x4a0101d4                arch_cpu_init_dm
 .text.announce_dram_init
                0x4a0101dc       0x18 common/built-in.o
 .text.init_func_i2c
                0x4a0101f4       0x28 common/built-in.o
 .text.init_baud_rate
                0x4a01021c       0x2c common/built-in.o
 .text.mark_bootstage
                0x4a010248       0x14 common/built-in.o
 .text.initf_dm
                0x4a01025c        0x8 common/built-in.o
 .text.setup_reloc
                0x4a010264       0x34 common/built-in.o
 .text.reloc_fdt
                0x4a010298       0x3c common/built-in.o
 .text.reserve_board
                0x4a0102d4       0x38 common/built-in.o
 .text.coloured_LED_init
                0x4a01030c        0x4 common/built-in.o
                0x4a01030c                coloured_LED_init
 .text.red_led_on
                0x4a010310        0x4 common/built-in.o
                0x4a010310                red_led_on
 .text.board_add_ram_info
                0x4a010314        0x4 common/built-in.o
                0x4a010314                board_add_ram_info
 .text.show_dram_config
                0x4a010318       0x38 common/built-in.o
 .text.dram_init_banksize
                0x4a010350       0x20 common/built-in.o
                0x4a010350                dram_init_banksize
 .text.setup_dram_config
                0x4a010370       0x10 common/built-in.o
 .text.board_get_usable_ram_top
                0x4a010380       0x14 common/built-in.o
                0x4a010380                board_get_usable_ram_top
 .text.board_reserve_ram_top
                0x4a010394        0x4 common/built-in.o
                0x4a010394                board_reserve_ram_top
 .text.setup_dest_addr
                0x4a010398       0x50 common/built-in.o
 .text.reserve_stacks
                0x4a0103e8       0x1c common/built-in.o
 .text.board_init_f
                0x4a010404       0x28 common/built-in.o
                0x4a010404                board_init_f
 .text.bootstage_relocate
                0x4a01042c        0x8 common/built-in.o
 .text.initr_trace
                0x4a010434        0x8 common/built-in.o
 .text.initr_reloc
                0x4a01043c       0x18 common/built-in.o
 .text.initr_barrier
                0x4a010454        0x8 common/built-in.o
 .text.initr_console_record
                0x4a01045c        0x8 common/built-in.o
 .text.power_init_board
                0x4a010464        0x8 common/built-in.o
                0x4a010464                power_init_board
 .text.initr_announce
                0x4a01046c        0x8 common/built-in.o
 .text.run_main_loop
                0x4a010474        0xc common/built-in.o
 .text.initr_net
                0x4a010480       0x1c common/built-in.o
 .text.initr_ethaddr
                0x4a01049c       0x20 common/built-in.o
 .text.initr_enable_interrupts
                0x4a0104bc       0x10 common/built-in.o
 .text.initr_jumptable
                0x4a0104cc       0x10 common/built-in.o
 .text.initr_env
                0x4a0104dc       0x64 common/built-in.o
 .text.initr_mmc
                0x4a010540       0x20 common/built-in.o
 .text.initr_serial
                0x4a010560       0x10 common/built-in.o
 .text.initr_bootstage
                0x4a010570       0x14 common/built-in.o
 .text.initr_dm
                0x4a010584       0x14 common/built-in.o
 .text.initr_malloc
                0x4a010598       0x24 common/built-in.o
 .text.initr_reloc_global_data
                0x4a0105bc       0x38 common/built-in.o
 .text.initr_caches
                0x4a0105f4       0x10 common/built-in.o
 .text.cpu_secondary_init_r
                0x4a010604        0x4 common/built-in.o
                0x4a010604                cpu_secondary_init_r
 .text.initr_secondary_cpu
                0x4a010608       0x10 common/built-in.o
 .text.board_init_r
                0x4a010618       0x14 common/built-in.o
                0x4a010618                board_init_r
 .text.checkboard
                0x4a01062c        0x8 common/built-in.o
                0x4a01062c                checkboard
 .text.show_board_info
                0x4a010634       0x38 common/built-in.o
                0x4a010634                show_board_info
 .text.bootm_find_images
                0x4a01066c       0xa8 common/built-in.o
                0x4a01066c                bootm_find_images
 .text.bootm_decomp_image
                0x4a010714      0x154 common/built-in.o
                0x4a010714                bootm_decomp_image
 .text.bootm_disable_interrupts
                0x4a010868       0x18 common/built-in.o
                0x4a010868                bootm_disable_interrupts
 .text.do_bootm_states
                0x4a010880      0x760 common/built-in.o
                0x4a010880                do_bootm_states
 .text.copy_args
                0x4a010fe0       0x4c common/built-in.o
 .text.do_bootm_rtems
                0x4a01102c       0x40 common/built-in.o
 .text.do_bootm_plan9
                0x4a01106c       0xa4 common/built-in.o
 .text.do_bootm_standalone
                0x4a011110       0x64 common/built-in.o
 .text.do_bootm_qnxelf
                0x4a011174       0x5c common/built-in.o
 .text.do_bootm_netbsd
                0x4a0111d0       0xf4 common/built-in.o
 .text.do_bootvx_fdt
                0x4a0112c4      0x110 common/built-in.o
                0x4a0112c4                do_bootvx_fdt
 .text.do_bootm_vxworks
                0x4a0113d4       0x24 common/built-in.o
 .text.arch_preboot_os
                0x4a0113f8        0x4 common/built-in.o
                0x4a0113f8                arch_preboot_os
 .text.boot_selected_os
                0x4a0113fc       0x58 common/built-in.o
                0x4a0113fc                boot_selected_os
 .text.bootm_os_get_boot_func
                0x4a011454       0x10 common/built-in.o
                0x4a011454                bootm_os_get_boot_func
 .text.regex_callback
                0x4a011464      0x138 common/built-in.o
 .text.env_attr_walk
                0x4a01159c      0x114 common/built-in.o
                0x4a01159c                env_attr_walk
 .text.env_attr_lookup
                0x4a0116b0       0x80 common/built-in.o
                0x4a0116b0                env_attr_lookup
 .text.clear_callback
                0x4a011730       0x10 common/built-in.o
 .text.on_callbacks
                0x4a011740       0x50 common/built-in.o
 .text.find_env_callback
                0x4a011790       0x64 common/built-in.o
 .text.set_callback
                0x4a0117f4       0x98 common/built-in.o
 .text.env_callback_init
                0x4a01188c       0xc0 common/built-in.o
                0x4a01188c                env_callback_init
 .text.skip_num
                0x4a01194c       0x70 common/built-in.o
 .text.clear_flags
                0x4a0119bc       0x10 common/built-in.o
 .text.on_flags
                0x4a0119cc       0x50 common/built-in.o
 .text.env_flags_parse_vartype
                0x4a011a1c       0x4c common/built-in.o
                0x4a011a1c                env_flags_parse_vartype
 .text.env_flags_parse_varaccess
                0x4a011a68       0x54 common/built-in.o
                0x4a011a68                env_flags_parse_varaccess
 .text.set_flags
                0x4a011abc       0xb0 common/built-in.o
 .text.eth_validate_ethaddr_str
                0x4a011b6c       0x90 common/built-in.o
                0x4a011b6c                eth_validate_ethaddr_str
 .text.env_flags_init
                0x4a011bfc       0xd0 common/built-in.o
                0x4a011bfc                env_flags_init
 .text.env_flags_validate
                0x4a011ccc      0x29c common/built-in.o
                0x4a011ccc                env_flags_validate
 .text.mmc_get_env_addr
                0x4a011f68       0x10 common/built-in.o
                0x4a011f68                mmc_get_env_addr
 .text.mmc_get_env_dev
                0x4a011f78        0x8 common/built-in.o
                0x4a011f78                mmc_get_env_dev
 .text.env_init
                0x4a011f80       0x1c common/built-in.o
                0x4a011f80                env_init
 .text.saveenv  0x4a011f9c      0x140 common/built-in.o
                0x4a011f9c                saveenv
 .text.env_relocate_spec
                0x4a0120dc      0x104 common/built-in.o
                0x4a0120dc                env_relocate_spec
 .text.of_bus_default_map
                0x4a0121e0       0xf0 common/built-in.o
 .text.of_bus_default_count_cells
                0x4a0122d0       0x58 common/built-in.o
                0x4a0122d0                of_bus_default_count_cells
 .text.of_bus_default_translate
                0x4a012328       0x9c common/built-in.o
 .text.fdt_getprop_u32_default_node
                0x4a0123c4       0x3c common/built-in.o
                0x4a0123c4                fdt_getprop_u32_default_node
 .text.fdt_find_and_setprop
                0x4a012400       0x88 common/built-in.o
                0x4a012400                fdt_find_and_setprop
 .text.fdt_find_or_add_subnode
                0x4a012488       0x68 common/built-in.o
                0x4a012488                fdt_find_or_add_subnode
 .text.fdt_root
                0x4a0124f0       0x88 common/built-in.o
                0x4a0124f0                fdt_root
 .text.fdt_initrd
                0x4a012578      0x1e4 common/built-in.o
                0x4a012578                fdt_initrd
 .text.fdt_chosen
                0x4a01275c       0xd4 common/built-in.o
                0x4a01275c                fdt_chosen
 .text.do_fixup_by_path
                0x4a012830       0x54 common/built-in.o
                0x4a012830                do_fixup_by_path
 .text.fdt_fixup_memory_banks
                0x4a012884      0x1dc common/built-in.o
                0x4a012884                fdt_fixup_memory_banks
 .text.fdt_fixup_memory
                0x4a012a60       0x20 common/built-in.o
                0x4a012a60                fdt_fixup_memory
 .text.fdt_fixup_ethernet
                0x4a012a80      0x1ac common/built-in.o
                0x4a012a80                fdt_fixup_ethernet
 .text.fdt_shrink_to_minimum
                0x4a012c2c       0xd0 common/built-in.o
                0x4a012c2c                fdt_shrink_to_minimum
 .text.fdt_translate_address
                0x4a012cfc      0x294 common/built-in.o
                0x4a012cfc                fdt_translate_address
 .text.miiphy_get_dev_by_name
                0x4a012f90       0x5c common/built-in.o
                0x4a012f90                miiphy_get_dev_by_name
 .text.miiphy_init
                0x4a012fec       0x24 common/built-in.o
                0x4a012fec                miiphy_init
 .text.mdio_alloc
                0x4a013010       0x30 common/built-in.o
                0x4a013010                mdio_alloc
 .text.mdio_register
                0x4a013040       0x94 common/built-in.o
                0x4a013040                mdio_register
 .text.mdio_list_devices
                0x4a0130d4       0x9c common/built-in.o
                0x4a0130d4                mdio_list_devices
 .text.miiphy_set_current_dev
                0x4a013170       0x40 common/built-in.o
                0x4a013170                miiphy_set_current_dev
 .text.miiphy_get_active_dev
                0x4a0131b0       0x50 common/built-in.o
 .text.mdio_get_current_dev
                0x4a013200       0x10 common/built-in.o
                0x4a013200                mdio_get_current_dev
 .text.mdio_phydev_for_ethname
                0x4a013210       0x8c common/built-in.o
                0x4a013210                mdio_phydev_for_ethname
 .text.miiphy_get_current_dev
                0x4a01329c       0x18 common/built-in.o
                0x4a01329c                miiphy_get_current_dev
 .text.miiphy_read
                0x4a0132b4       0x48 common/built-in.o
                0x4a0132b4                miiphy_read
 .text.miiphy_write
                0x4a0132fc       0x3c common/built-in.o
                0x4a0132fc                miiphy_write
 .text.miiphy_listdev
                0x4a013338       0x70 common/built-in.o
                0x4a013338                miiphy_listdev
 .text.miiphy_info
                0x4a0133a8       0x84 common/built-in.o
                0x4a0133a8                miiphy_info
 .text.miiphy_speed
                0x4a01342c       0xc4 common/built-in.o
                0x4a01342c                miiphy_speed
 .text.miiphy_duplex
                0x4a0134f0       0xb8 common/built-in.o
                0x4a0134f0                miiphy_duplex
 .text.miiphy_is_1000base_x
                0x4a0135a8        0x8 common/built-in.o
                0x4a0135a8                miiphy_is_1000base_x
 .text.usb_set_maxpacket_ep
                0x4a0135b0       0x68 common/built-in.o
 .text.usb_control_msg
                0x4a013618       0x9c common/built-in.o
                0x4a013618                usb_control_msg
 .text.usb_get_descriptor
                0x4a0136b4       0x50 common/built-in.o
 .text.get_descriptor_len
                0x4a013704       0x90 common/built-in.o
 .text.usb_get_string
                0x4a013794       0x68 common/built-in.o
 .text.usb_string_sub
                0x4a0137fc      0x104 common/built-in.o
 .text.usb_bulk_msg
                0x4a013900       0x74 common/built-in.o
                0x4a013900                usb_bulk_msg
 .text.usb_maxpacket
                0x4a013974       0x1c common/built-in.o
                0x4a013974                usb_maxpacket
 .text.usb_clear_halt
                0x4a013990       0xa0 common/built-in.o
                0x4a013990                usb_clear_halt
 .text.usb_get_configuration_len
                0x4a013a30       0x74 common/built-in.o
                0x4a013a30                usb_get_configuration_len
 .text.usb_get_configuration_no
                0x4a013aa4       0x30 common/built-in.o
                0x4a013aa4                usb_get_configuration_no
 .text.usb_set_interface
                0x4a013ad4       0xb8 common/built-in.o
                0x4a013ad4                usb_set_interface
 .text.usb_string
                0x4a013b8c      0x108 common/built-in.o
                0x4a013b8c                usb_string
 .text.usb_select_config
                0x4a013c94      0x48c common/built-in.o
                0x4a013c94                usb_select_config
 .text.usb_setup_device
                0x4a014120      0x188 common/built-in.o
                0x4a014120                usb_setup_device
 .text.usb_device_has_child_on_port
                0x4a0142a8        0x8 common/built-in.o
                0x4a0142a8                usb_device_has_child_on_port
 .text.usb_find_usb2_hub_address_port
                0x4a0142b0       0x78 common/built-in.o
                0x4a0142b0                usb_find_usb2_hub_address_port
 .text.usb_get_hub_descriptor
                0x4a014328       0x4c common/built-in.o
 .text.usb_set_port_feature
                0x4a014374       0x4c common/built-in.o
 .text.usb_clear_port_feature
                0x4a0143c0       0x4c common/built-in.o
 .text.usb_hub_reset_devices
                0x4a01440c        0x4 common/built-in.o
                0x4a01440c                usb_hub_reset_devices
 .text.usb_get_port_status
                0x4a014410       0x4c common/built-in.o
                0x4a014410                usb_get_port_status
 .text.usb_hub_reset
                0x4a01445c       0x20 common/built-in.o
                0x4a01445c                usb_hub_reset
 .text.legacy_hub_port_reset
                0x4a01447c       0xa4 common/built-in.o
                0x4a01447c                legacy_hub_port_reset
 .text.usb_hub_port_connect_change
                0x4a014520      0x10c common/built-in.o
                0x4a014520                usb_hub_port_connect_change
 .text.usb_hub_configure
                0x4a01462c      0x4a0 common/built-in.o
 .text.usb_hub_scan
                0x4a014acc       0x10 common/built-in.o
                0x4a014acc                usb_hub_scan
 .text.usb_hub_post_probe
                0x4a014adc        0x4 common/built-in.o
 .text.usb_stor_irq
                0x4a014ae0       0x1c common/built-in.o
 .text.usb_request_sense
                0x4a014afc       0x68 common/built-in.o
 .text.usb_stor_BBB_clear_endpt_stall
                0x4a014b64       0x44 common/built-in.o
 .text.usb_stor_BBB_reset
                0x4a014ba8       0xcc common/built-in.o
 .text.usb_stor_CB_reset
                0x4a014c74       0xcc common/built-in.o
 .text.usb_stor_BBB_transport
                0x4a014d40      0x260 common/built-in.o
 .text.usb_stor_CB_comdat
                0x4a014fa0      0x220 common/built-in.o
 .text.usb_stor_write
                0x4a0151c0      0x180 common/built-in.o
 .text.usb_stor_read
                0x4a015340      0x180 common/built-in.o
 .text.usb_stor_CBI_get_status.isra.2
                0x4a0154c0       0xc8 common/built-in.o
 .text.usb_stor_CB_transport
                0x4a015588      0x208 common/built-in.o
 .text.usb_stor_info
                0x4a015790       0x74 common/built-in.o
                0x4a015790                usb_stor_info
 .text.usb_stor_reset
                0x4a015804       0x14 common/built-in.o
                0x4a015804                usb_stor_reset
 .text.usb_storage_probe
                0x4a015818      0x218 common/built-in.o
                0x4a015818                usb_storage_probe
 .text.usb_stor_get_info
                0x4a015a30      0x318 common/built-in.o
                0x4a015a30                usb_stor_get_info
 .text.usb_mass_storage_probe
                0x4a015d48      0x1b4 common/built-in.o
 .text.menu_display_statusline
                0x4a015efc        0x4 common/built-in.o
                0x4a015efc                menu_display_statusline
 .text.menu_default_set
                0x4a015f00       0x80 common/built-in.o
                0x4a015f00                menu_default_set
 .text.menu_get_choice
                0x4a015f80      0x1d0 common/built-in.o
                0x4a015f80                menu_get_choice
 .text.menu_item_add
                0x4a016150       0xe0 common/built-in.o
                0x4a016150                menu_item_add
 .text.menu_create
                0x4a016230       0x90 common/built-in.o
                0x4a016230                menu_create
 .text.menu_destroy
                0x4a0162c0       0x70 common/built-in.o
                0x4a0162c0                menu_destroy
 .text.env_get_char_spec
                0x4a016330        0xc common/built-in.o
                0x4a016330                env_get_char_spec
 .text.env_get_addr
                0x4a01633c       0x24 common/built-in.o
                0x4a01633c                env_get_addr
 .text.env_get_char_memory
                0x4a016360       0x10 common/built-in.o
                0x4a016360                env_get_char_memory
 .text.env_get_char
                0x4a016370       0x30 common/built-in.o
                0x4a016370                env_get_char
 .text.getenv_yesno
                0x4a0163a0       0x54 common/built-in.o
                0x4a0163a0                getenv_yesno
 .text.getenv_default
                0x4a0163f4       0x30 common/built-in.o
                0x4a0163f4                getenv_default
 .text.set_default_env
                0x4a016424       0xc8 common/built-in.o
                0x4a016424                set_default_env
 .text.set_default_vars
                0x4a0164ec       0x3c common/built-in.o
                0x4a0164ec                set_default_vars
 .text.env_import
                0x4a016528       0xe0 common/built-in.o
                0x4a016528                env_import
 .text.env_export
                0x4a016608       0xa4 common/built-in.o
                0x4a016608                env_export
 .text.env_relocate
                0x4a0166ac       0x30 common/built-in.o
                0x4a0166ac                env_relocate
 .text.env_complete
                0x4a0166dc       0xe4 common/built-in.o
                0x4a0166dc                env_complete
 .text.console_setfile
                0x4a0167c0       0xc0 common/built-in.o
 .text.pre_console_putc
                0x4a016880       0x1c common/built-in.o
 .text.serial_printf
                0x4a01689c       0x50 common/built-in.o
                0x4a01689c                serial_printf
 .text.fgetc    0x4a0168ec       0x2c common/built-in.o
                0x4a0168ec                fgetc
 .text.getc     0x4a016918       0x24 common/built-in.o
                0x4a016918                getc
 .text.ftstc    0x4a01693c       0x2c common/built-in.o
                0x4a01693c                ftstc
 .text.tstc     0x4a016968       0x24 common/built-in.o
                0x4a016968                tstc
 .text.fputc    0x4a01698c       0x24 common/built-in.o
                0x4a01698c                fputc
 .text.putc     0x4a0169b0       0x48 common/built-in.o
                0x4a0169b0                putc
 .text.fputs    0x4a0169f8       0x24 common/built-in.o
                0x4a0169f8                fputs
 .text.puts     0x4a016a1c       0x6c common/built-in.o
                0x4a016a1c                puts
 .text.print_pre_console_buffer
                0x4a016a88       0xbc common/built-in.o
 .text.ctrlc    0x4a016b44       0x54 common/built-in.o
                0x4a016b44                ctrlc
 .text.disable_ctrlc
                0x4a016b98       0x18 common/built-in.o
                0x4a016b98                disable_ctrlc
 .text.had_ctrlc
                0x4a016bb0       0x10 common/built-in.o
                0x4a016bb0                had_ctrlc
 .text.clear_ctrlc
                0x4a016bc0       0x14 common/built-in.o
                0x4a016bc0                clear_ctrlc
 .text.search_device
                0x4a016bd4       0x28 common/built-in.o
                0x4a016bd4                search_device
 .text.console_assign
                0x4a016bfc       0x40 common/built-in.o
                0x4a016bfc                console_assign
 .text.on_console
                0x4a016c3c       0xc4 common/built-in.o
 .text.console_init_f
                0x4a016d00       0x1c common/built-in.o
                0x4a016d00                console_init_f
 .text.stdio_print_current_devices
                0x4a016d1c       0xb4 common/built-in.o
                0x4a016d1c                stdio_print_current_devices
 .text.console_init_r
                0x4a016dd0      0x15c common/built-in.o
                0x4a016dd0                console_init_r
 .text.sbrk     0x4a016f2c       0x6c common/built-in.o
                0x4a016f2c                sbrk
 .text.mem_malloc_init
                0x4a016f98       0x2c common/built-in.o
                0x4a016f98                mem_malloc_init
 .text.malloc_trim
                0x4a016fc4       0xd8 common/built-in.o
                0x4a016fc4                malloc_trim
 .text.free     0x4a01709c      0x248 common/built-in.o
                0x4a01709c                free
 .text.malloc   0x4a0172e4      0x60c common/built-in.o
                0x4a0172e4                malloc
 .text.calloc   0x4a0178f0      0x104 common/built-in.o
                0x4a0178f0                calloc
 .text.memalign
                0x4a0179f4      0x178 common/built-in.o
                0x4a0179f4                memalign
 .text.realloc  0x4a017b6c      0x428 common/built-in.o
                0x4a017b6c                realloc
 .text.initf_malloc
                0x4a017f94       0x18 common/built-in.o
                0x4a017f94                initf_malloc
 .text.malloc_simple
                0x4a017fac       0x30 common/built-in.o
                0x4a017fac                malloc_simple
 .text.on_loadaddr
                0x4a017fdc       0x38 common/built-in.o
 .text.image_check_hcrc
                0x4a018014       0x4c common/built-in.o
                0x4a018014                image_check_hcrc
 .text.image_check_dcrc
                0x4a018060       0x38 common/built-in.o
                0x4a018060                image_check_dcrc
 .text.image_multi_count
                0x4a018098       0x24 common/built-in.o
                0x4a018098                image_multi_count
 .text.image_multi_getimg
                0x4a0180bc       0x7c common/built-in.o
                0x4a0180bc                image_multi_getimg
 .text.getenv_bootm_low
                0x4a018138       0x30 common/built-in.o
                0x4a018138                getenv_bootm_low
 .text.getenv_bootm_size
                0x4a018168       0x68 common/built-in.o
                0x4a018168                getenv_bootm_size
 .text.getenv_bootm_mapsize
                0x4a0181d0       0x30 common/built-in.o
                0x4a0181d0                getenv_bootm_mapsize
 .text.memmove_wd
                0x4a018200        0xc common/built-in.o
                0x4a018200                memmove_wd
 .text.genimg_print_size
                0x4a01820c       0x30 common/built-in.o
                0x4a01820c                genimg_print_size
 .text.get_table_entry
                0x4a01823c       0x24 common/built-in.o
                0x4a01823c                get_table_entry
 .text.get_table_entry_name
                0x4a018260       0x20 common/built-in.o
                0x4a018260                get_table_entry_name
 .text.genimg_get_os_name
                0x4a018280       0x18 common/built-in.o
                0x4a018280                genimg_get_os_name
 .text.genimg_get_arch_name
                0x4a018298       0x18 common/built-in.o
                0x4a018298                genimg_get_arch_name
 .text.genimg_get_type_name
                0x4a0182b0       0x18 common/built-in.o
                0x4a0182b0                genimg_get_type_name
 .text.genimg_get_comp_name
                0x4a0182c8       0x18 common/built-in.o
                0x4a0182c8                genimg_get_comp_name
 .text.image_print_contents
                0x4a0182e0      0x170 common/built-in.o
                0x4a0182e0                image_print_contents
 .text.genimg_get_kernel_addr_fit
                0x4a018450       0x24 common/built-in.o
                0x4a018450                genimg_get_kernel_addr_fit
 .text.genimg_get_kernel_addr
                0x4a018474       0x20 common/built-in.o
                0x4a018474                genimg_get_kernel_addr
 .text.genimg_get_format
                0x4a018494       0x38 common/built-in.o
                0x4a018494                genimg_get_format
 .text.genimg_get_image
                0x4a0184cc        0x4 common/built-in.o
                0x4a0184cc                genimg_get_image
 .text.genimg_has_config
                0x4a0184d0        0x8 common/built-in.o
                0x4a0184d0                genimg_has_config
 .text.boot_get_ramdisk
                0x4a0184d8      0x284 common/built-in.o
                0x4a0184d8                boot_get_ramdisk
 .text.boot_ramdisk_high
                0x4a01875c      0x130 common/built-in.o
                0x4a01875c                boot_ramdisk_high
 .text.boot_get_setup
                0x4a01888c        0x8 common/built-in.o
                0x4a01888c                boot_get_setup
 .text.image_setup_linux
                0x4a018894       0x88 common/built-in.o
                0x4a018894                image_setup_linux
 .text.fdt_error
                0x4a01891c       0x2c common/built-in.o
 .text.boot_fdt_add_mem_rsv_regions
                0x4a018948       0x88 common/built-in.o
                0x4a018948                boot_fdt_add_mem_rsv_regions
 .text.boot_relocate_fdt
                0x4a0189d0      0x19c common/built-in.o
                0x4a0189d0                boot_relocate_fdt
 .text.boot_get_fdt
                0x4a018b6c      0x2bc common/built-in.o
                0x4a018b6c                boot_get_fdt
 .text.ft_verify_fdt
                0x4a018e28        0x8 common/built-in.o
                0x4a018e28                ft_verify_fdt
 .text.image_setup_libfdt
                0x4a018e30      0x138 common/built-in.o
                0x4a018e30                image_setup_libfdt
 .text.get_ram_size
                0x4a018f68      0x108 common/built-in.o
                0x4a018f68                get_ram_size
 .text.get_effective_memsize
                0x4a019070        0x8 common/built-in.o
                0x4a019070                get_effective_memsize
 .text.stdio_serial_tstc
                0x4a019078        0x4 common/built-in.o
 .text.stdio_serial_getc
                0x4a01907c        0x4 common/built-in.o
 .text.stdio_serial_puts
                0x4a019080        0x8 common/built-in.o
 .text.stdio_serial_putc
                0x4a019088        0x8 common/built-in.o
 .text.stdio_get_list
                0x4a019090        0xc common/built-in.o
                0x4a019090                stdio_get_list
 .text.stdio_get_by_name
                0x4a01909c       0x54 common/built-in.o
                0x4a01909c                stdio_get_by_name
 .text.stdio_clone
                0x4a0190f0       0x38 common/built-in.o
                0x4a0190f0                stdio_clone
 .text.stdio_register_dev
                0x4a019128       0x50 common/built-in.o
                0x4a019128                stdio_register_dev
 .text.stdio_register
                0x4a019178        0x8 common/built-in.o
                0x4a019178                stdio_register
 .text.stdio_init_tables
                0x4a019180       0x1c common/built-in.o
                0x4a019180                stdio_init_tables
 .text.stdio_add_devices
                0x4a01919c       0xd8 common/built-in.o
                0x4a01919c                stdio_add_devices
 .text.cli_simple_process_macros
                0x4a019274      0x20c common/built-in.o
                0x4a019274                cli_simple_process_macros
 .text.run_command
                0x4a019480       0x10 common/built-in.o
                0x4a019480                run_command
 .text.run_command_list
                0x4a019490       0x78 common/built-in.o
                0x4a019490                run_command_list
 .text.do_run   0x4a019508       0x7c common/built-in.o
                0x4a019508                do_run
 .text.cli_process_fdt
                0x4a019584       0x40 common/built-in.o
                0x4a019584                cli_process_fdt
 .text.cli_secure_boot_cmd
                0x4a0195c4       0x78 common/built-in.o
                0x4a0195c4                cli_secure_boot_cmd
 .text.cli_loop
                0x4a01963c        0xc common/built-in.o
                0x4a01963c                cli_loop
 .text.cli_init
                0x4a019648        0x4 common/built-in.o
                0x4a019648                cli_init
 .text.delete_char.part.0
                0x4a01964c       0xd4 common/built-in.o
 .text.cread_add_char
                0x4a019720       0xec common/built-in.o
 .text.cli_readline_into_buffer
                0x4a01980c      0xa6c common/built-in.o
                0x4a01980c                cli_readline_into_buffer
 .text.cli_readline
                0x4a01a278       0x14 common/built-in.o
                0x4a01a278                cli_readline
 .text.find_cmd_tbl
                0x4a01a28c       0x9c common/built-in.o
                0x4a01a28c                find_cmd_tbl
 .text.find_cmd
                0x4a01a328       0x28 common/built-in.o
                0x4a01a328                find_cmd
 .text.cmd_usage
                0x4a01a350       0x5c common/built-in.o
                0x4a01a350                cmd_usage
 .text._do_help
                0x4a01a3ac      0x188 common/built-in.o
                0x4a01a3ac                _do_help
 .text.var_complete
                0x4a01a534       0x84 common/built-in.o
                0x4a01a534                var_complete
 .text.cmd_auto_complete
                0x4a01a5b8      0x48c common/built-in.o
                0x4a01a5b8                cmd_auto_complete
 .text.cmd_get_data_size
                0x4a01aa44       0x50 common/built-in.o
                0x4a01aa44                cmd_get_data_size
 .text.cmd_process
                0x4a01aa94       0xec common/built-in.o
                0x4a01aa94                cmd_process
 .text.cmd_process_error
                0x4a01ab80       0x30 common/built-in.o
                0x4a01ab80                cmd_process_error
 .text.hex1_bin
                0x4a01abb0       0x38 common/built-in.o
 .text.hex2_bin
                0x4a01abe8       0x34 common/built-in.o
 .text.srec_decode
                0x4a01ac1c      0x260 common/built-in.o
                0x4a01ac1c                srec_decode
 .text.CYGACC_COMM_IF_GETC_TIMEOUT.isra.1
                0x4a01ae7c       0x4c common/built-in.o
 .text.xyzModem_flush
                0x4a01aec8       0x18 common/built-in.o
 .text.xyzModem_get_hdr
                0x4a01aee0      0x248 common/built-in.o
 .text.xyzModem_stream_open
                0x4a01b128      0x24c common/built-in.o
                0x4a01b128                xyzModem_stream_open
 .text.xyzModem_stream_read
                0x4a01b374      0x244 common/built-in.o
                0x4a01b374                xyzModem_stream_read
 .text.xyzModem_stream_close
                0x4a01b5b8       0x50 common/built-in.o
                0x4a01b5b8                xyzModem_stream_close
 .text.xyzModem_stream_terminate
                0x4a01b608       0x94 common/built-in.o
                0x4a01b608                xyzModem_stream_terminate
 .text.xyzModem_error
                0x4a01b69c       0x20 common/built-in.o
                0x4a01b69c                xyzModem_error
 .text.part_driver_lookup_type
                0x4a01b6bc       0x48 disk/built-in.o
 .text.blk_get_dev
                0x4a01b704       0x28 disk/built-in.o
                0x4a01b704                blk_get_dev
 .text.dev_print
                0x4a01b72c      0x218 disk/built-in.o
                0x4a01b72c                dev_print
 .text.part_init
                0x4a01b944       0x60 disk/built-in.o
                0x4a01b944                part_init
 .text.part_print
                0x4a01b9a4      0x110 disk/built-in.o
                0x4a01b9a4                part_print
 .text.part_get_info
                0x4a01bab4       0x5c disk/built-in.o
                0x4a01bab4                part_get_info
 .text.blk_get_device_by_str
                0x4a01bb10      0x140 disk/built-in.o
                0x4a01bb10                blk_get_device_by_str
 .text.blk_get_device_part_str
                0x4a01bc50      0x3d8 disk/built-in.o
                0x4a01bc50                blk_get_device_part_str
 .text.test_block_type
                0x4a01c028       0x88 disk/built-in.o
 .text.part_test_dos
                0x4a01c0b0       0x5c disk/built-in.o
 .text.print_partition_extended
                0x4a01c10c      0x24c disk/built-in.o
 .text.part_print_dos
                0x4a01c358       0x30 disk/built-in.o
                0x4a01c358                part_print_dos
 .text.part_get_info_extended
                0x4a01c388      0x338 disk/built-in.o
 .text.part_get_info_dos
                0x4a01c6c0       0x24 disk/built-in.o
                0x4a01c6c0                part_get_info_dos
 .text.iso_dread
                0x4a01c6e4       0x34 disk/built-in.o
                0x4a01c6e4                iso_dread
 .text.part_get_info_iso_verb
                0x4a01c718      0x41c disk/built-in.o
                0x4a01c718                part_get_info_iso_verb
 .text.part_test_iso
                0x4a01cb34       0x20 disk/built-in.o
 .text.part_print_iso
                0x4a01cb54       0x98 disk/built-in.o
 .text.part_get_info_iso
                0x4a01cbec        0x8 disk/built-in.o
 .text.print_efiname
                0x4a01cbf4       0x58 disk/built-in.o
 .text.part_test_efi
                0x4a01cc4c       0xe0 disk/built-in.o
 .text.validate_gpt_entries
                0x4a01cd2c       0x98 disk/built-in.o
 .text.validate_gpt_header
                0x4a01cdc4      0x234 disk/built-in.o
 .text.is_gpt_valid
                0x4a01cff8      0x1c0 disk/built-in.o
 .text.is_pte_valid
                0x4a01d1b8       0x58 disk/built-in.o
 .text.part_get_info_efi
                0x4a01d210      0x200 disk/built-in.o
                0x4a01d210                part_get_info_efi
 .text.part_print_efi
                0x4a01d410      0x274 disk/built-in.o
                0x4a01d410                part_print_efi
 .text.alloc_priv.part.4
                0x4a01d684       0x30 drivers/built-in.o
 .text.device_bind_common.isra.5
                0x4a01d6b4      0x33c drivers/built-in.o
 .text.device_bind_with_driver_data
                0x4a01d9f0       0x28 drivers/built-in.o
                0x4a01d9f0                device_bind_with_driver_data
 .text.device_bind
                0x4a01da18       0x28 drivers/built-in.o
                0x4a01da18                device_bind
 .text.device_bind_by_name
                0x4a01da40       0x68 drivers/built-in.o
                0x4a01da40                device_bind_by_name
 .text.device_probe
                0x4a01daa8      0x230 drivers/built-in.o
                0x4a01daa8                device_probe
 .text.dev_get_platdata
                0x4a01dcd8       0x30 drivers/built-in.o
                0x4a01dcd8                dev_get_platdata
 .text.dev_get_parent_platdata
                0x4a01dd08       0x30 drivers/built-in.o
                0x4a01dd08                dev_get_parent_platdata
 .text.dev_get_uclass_platdata
                0x4a01dd38       0x30 drivers/built-in.o
                0x4a01dd38                dev_get_uclass_platdata
 .text.dev_get_priv
                0x4a01dd68       0x30 drivers/built-in.o
                0x4a01dd68                dev_get_priv
 .text.dev_get_uclass_priv
                0x4a01dd98       0x30 drivers/built-in.o
                0x4a01dd98                dev_get_uclass_priv
 .text.dev_get_parent_priv
                0x4a01ddc8       0x30 drivers/built-in.o
                0x4a01ddc8                dev_get_parent_priv
 .text.device_get_child
                0x4a01ddf8       0x4c drivers/built-in.o
                0x4a01ddf8                device_get_child
 .text.device_find_first_child
                0x4a01de44       0x1c drivers/built-in.o
                0x4a01de44                device_find_first_child
 .text.device_find_next_child
                0x4a01de60       0x28 drivers/built-in.o
                0x4a01de60                device_find_next_child
 .text.dev_get_driver_data
                0x4a01de88        0x8 drivers/built-in.o
                0x4a01de88                dev_get_driver_data
 .text.device_get_uclass_id
                0x4a01de90       0x10 drivers/built-in.o
                0x4a01de90                device_get_uclass_id
 .text.dev_get_addr_index
                0x4a01dea0       0xa8 drivers/built-in.o
                0x4a01dea0                dev_get_addr_index
 .text.dev_get_addr_name
                0x4a01df48       0x38 drivers/built-in.o
                0x4a01df48                dev_get_addr_name
 .text.dev_get_addr
                0x4a01df80        0x8 drivers/built-in.o
                0x4a01df80                dev_get_addr
 .text.device_has_active_children
                0x4a01df88       0x40 drivers/built-in.o
                0x4a01df88                device_has_active_children
 .text.device_is_last_sibling
                0x4a01dfc8       0x2c drivers/built-in.o
                0x4a01dfc8                device_is_last_sibling
 .text.lists_driver_lookup_name
                0x4a01dff4       0x54 drivers/built-in.o
                0x4a01dff4                lists_driver_lookup_name
 .text.lists_uclass_lookup
                0x4a01e048       0x48 drivers/built-in.o
                0x4a01e048                lists_uclass_lookup
 .text.lists_bind_drivers
                0x4a01e090       0x90 drivers/built-in.o
                0x4a01e090                lists_bind_drivers
 .text.device_bind_driver_to_node
                0x4a01e120       0x44 drivers/built-in.o
                0x4a01e120                device_bind_driver_to_node
 .text.device_bind_driver
                0x4a01e164       0x14 drivers/built-in.o
                0x4a01e164                device_bind_driver
 .text.lists_bind_fdt
                0x4a01e178      0x1b8 drivers/built-in.o
                0x4a01e178                lists_bind_fdt
 .text.dm_root  0x4a01e330       0x2c drivers/built-in.o
                0x4a01e330                dm_root
 .text.dm_get_translation_offset
                0x4a01e35c       0x14 drivers/built-in.o
                0x4a01e35c                dm_get_translation_offset
 .text.dm_init  0x4a01e370       0x60 drivers/built-in.o
                0x4a01e370                dm_init
 .text.dm_scan_platdata
                0x4a01e3d0       0x2c drivers/built-in.o
                0x4a01e3d0                dm_scan_platdata
 .text.dm_scan_fdt_node
                0x4a01e3fc       0xc4 drivers/built-in.o
                0x4a01e3fc                dm_scan_fdt_node
 .text.dm_scan_fdt_dev
                0x4a01e4c0       0x2c drivers/built-in.o
                0x4a01e4c0                dm_scan_fdt_dev
 .text.dm_scan_fdt
                0x4a01e4ec       0x18 drivers/built-in.o
                0x4a01e4ec                dm_scan_fdt
 .text.dm_scan_other
                0x4a01e504        0x8 drivers/built-in.o
                0x4a01e504                dm_scan_other
 .text.dm_init_and_scan
                0x4a01e50c       0x44 drivers/built-in.o
                0x4a01e50c                dm_init_and_scan
 .text.uclass_find
                0x4a01e550       0x54 drivers/built-in.o
                0x4a01e550                uclass_find
 .text.uclass_get
                0x4a01e5a4      0x118 drivers/built-in.o
                0x4a01e5a4                uclass_get
 .text.uclass_find_device
                0x4a01e6bc       0x68 drivers/built-in.o
                0x4a01e6bc                uclass_find_device
 .text.uclass_find_first_device
                0x4a01e724       0x38 drivers/built-in.o
                0x4a01e724                uclass_find_first_device
 .text.uclass_find_next_device
                0x4a01e75c       0x2c drivers/built-in.o
                0x4a01e75c                uclass_find_next_device
 .text.uclass_find_device_by_seq
                0x4a01e788       0x70 drivers/built-in.o
                0x4a01e788                uclass_find_device_by_seq
 .text.uclass_find_device_by_of_offset
                0x4a01e7f8       0x60 drivers/built-in.o
                0x4a01e7f8                uclass_find_device_by_of_offset
 .text.uclass_get_device_tail
                0x4a01e858       0x28 drivers/built-in.o
                0x4a01e858                uclass_get_device_tail
 .text.uclass_get_device
                0x4a01e880       0x2c drivers/built-in.o
                0x4a01e880                uclass_get_device
 .text.uclass_get_device_by_seq
                0x4a01e8ac       0x54 drivers/built-in.o
                0x4a01e8ac                uclass_get_device_by_seq
 .text.uclass_get_device_by_of_offset
                0x4a01e900       0x2c drivers/built-in.o
                0x4a01e900                uclass_get_device_by_of_offset
 .text.uclass_first_device
                0x4a01e92c       0x34 drivers/built-in.o
                0x4a01e92c                uclass_first_device
 .text.uclass_next_device
                0x4a01e960       0x3c drivers/built-in.o
                0x4a01e960                uclass_next_device
 .text.uclass_bind_device
                0x4a01e99c       0x80 drivers/built-in.o
                0x4a01e99c                uclass_bind_device
 .text.uclass_unbind_device
                0x4a01ea1c       0x48 drivers/built-in.o
                0x4a01ea1c                uclass_unbind_device
 .text.uclass_resolve_seq
                0x4a01ea64       0xac drivers/built-in.o
                0x4a01ea64                uclass_resolve_seq
 .text.uclass_pre_probe_device
                0x4a01eb10       0x5c drivers/built-in.o
                0x4a01eb10                uclass_pre_probe_device
 .text.uclass_post_probe_device
                0x4a01eb6c       0x28 drivers/built-in.o
                0x4a01eb6c                uclass_post_probe_device
 .text.uclass_pre_remove_device
                0x4a01eb94       0x28 drivers/built-in.o
                0x4a01eb94                uclass_pre_remove_device
 .text.dm_warn  0x4a01ebbc       0x24 drivers/built-in.o
                0x4a01ebbc                dm_warn
 .text.device_unbind
                0x4a01ebe0      0x144 drivers/built-in.o
                0x4a01ebe0                device_unbind
 .text.device_free
                0x4a01ed24       0x90 drivers/built-in.o
                0x4a01ed24                device_free
 .text.device_remove
                0x4a01edb4      0x130 drivers/built-in.o
                0x4a01edb4                device_remove
 .text.simple_bus_post_bind
                0x4a01eee4       0x64 drivers/built-in.o
 .text.show_devices
                0x4a01ef48       0xf8 drivers/built-in.o
 .text.dm_dump_all
                0x4a01f040       0x3c drivers/built-in.o
                0x4a01f040                dm_dump_all
 .text.dm_dump_uclass
                0x4a01f07c       0xd8 drivers/built-in.o
                0x4a01f07c                dm_dump_uclass
 .text.get_desc
                0x4a01f154       0x68 drivers/built-in.o
 .text.blk_driver_lookup_type
                0x4a01f1bc       0x48 drivers/built-in.o
                0x4a01f1bc                blk_driver_lookup_type
 .text.blk_get_devnum_by_type
                0x4a01f204       0x34 drivers/built-in.o
                0x4a01f204                blk_get_devnum_by_type
 .text.blk_dselect_hwpart
                0x4a01f238       0x44 drivers/built-in.o
                0x4a01f238                blk_dselect_hwpart
 .text.blk_get_devnum_by_typename
                0x4a01f27c       0x78 drivers/built-in.o
                0x4a01f27c                blk_get_devnum_by_typename
 .text.blk_select_hwpart_devnum
                0x4a01f2f4       0x44 drivers/built-in.o
                0x4a01f2f4                blk_select_hwpart_devnum
 .text.keyboard_start
                0x4a01f338       0x2c drivers/built-in.o
 .text.keyboard_stop
                0x4a01f364       0x2c drivers/built-in.o
 .text.keyboard_pre_probe
                0x4a01f390       0x6c drivers/built-in.o
 .text.keyboard_tstc
                0x4a01f3fc       0x50 drivers/built-in.o
 .text.keyboard_getc
                0x4a01f44c       0x50 drivers/built-in.o
 .text.input_tstc
                0x4a01f49c       0x44 drivers/built-in.o
                0x4a01f49c                input_tstc
 .text.input_getc
                0x4a01f4e0       0x64 drivers/built-in.o
                0x4a01f4e0                input_getc
 .text.input_init
                0x4a01f544       0x24 drivers/built-in.o
                0x4a01f544                input_init
 .text.gpio_renumber
                0x4a01f568       0x80 drivers/gpio/built-in.o
 .text.gpio_pre_remove
                0x4a01f5e8       0x50 drivers/gpio/built-in.o
 .text.gpio_post_probe
                0x4a01f638       0x38 drivers/gpio/built-in.o
 .text.gpio_to_device
                0x4a01f670       0x80 drivers/gpio/built-in.o
 .text.check_reserved
                0x4a01f6f0       0x70 drivers/gpio/built-in.o
 .text.dm_gpio_lookup_name
                0x4a01f760      0x104 drivers/gpio/built-in.o
                0x4a01f760                dm_gpio_lookup_name
 .text.gpio_lookup_name
                0x4a01f864       0x70 drivers/gpio/built-in.o
                0x4a01f864                gpio_lookup_name
 .text.dm_gpio_request
                0x4a01f8d4       0x98 drivers/gpio/built-in.o
                0x4a01f8d4                dm_gpio_request
 .text.gpio_request
                0x4a01f96c       0x2c drivers/gpio/built-in.o
                0x4a01f96c                gpio_request
 .text._dm_gpio_free
                0x4a01f998       0x70 drivers/gpio/built-in.o
                0x4a01f998                _dm_gpio_free
 .text.gpio_free
                0x4a01fa08       0x28 drivers/gpio/built-in.o
                0x4a01fa08                gpio_free
 .text.gpio_direction_input
                0x4a01fa30       0x4c drivers/gpio/built-in.o
                0x4a01fa30                gpio_direction_input
 .text.gpio_direction_output
                0x4a01fa7c       0x54 drivers/gpio/built-in.o
                0x4a01fa7c                gpio_direction_output
 .text.dm_gpio_get_value
                0x4a01fad0       0x4c drivers/gpio/built-in.o
                0x4a01fad0                dm_gpio_get_value
 .text.dm_gpio_set_value
                0x4a01fb1c       0x58 drivers/gpio/built-in.o
                0x4a01fb1c                dm_gpio_set_value
 .text.gpio_get_value
                0x4a01fb74       0x24 drivers/gpio/built-in.o
                0x4a01fb74                gpio_get_value
 .text.gpio_set_value
                0x4a01fb98       0x2c drivers/gpio/built-in.o
                0x4a01fb98                gpio_set_value
 .text.gpio_get_bank_info
                0x4a01fbc4       0x1c drivers/gpio/built-in.o
                0x4a01fbc4                gpio_get_bank_info
 .text.get_function
                0x4a01fbe0       0xac drivers/gpio/built-in.o
                0x4a01fbe0                get_function
 .text.gpio_get_function
                0x4a01fc8c        0xc drivers/gpio/built-in.o
                0x4a01fc8c                gpio_get_function
 .text.gpio_get_raw_function
                0x4a01fc98        0xc drivers/gpio/built-in.o
                0x4a01fc98                gpio_get_raw_function
 .text.gpio_get_status
                0x4a01fca4      0x114 drivers/gpio/built-in.o
                0x4a01fca4                gpio_get_status
 .text.sunxi_gpio_set_value
                0x4a01fdb8       0x40 drivers/gpio/built-in.o
 .text.sunxi_gpio_get_value
                0x4a01fdf8       0x28 drivers/gpio/built-in.o
 .text.sunxi_gpio_get_function
                0x4a01fe20       0x30 drivers/gpio/built-in.o
 .text.sunxi_gpio_direction_output
                0x4a01fe50       0x54 drivers/gpio/built-in.o
 .text.sunxi_gpio_direction_input
                0x4a01fea4       0x24 drivers/gpio/built-in.o
 .text.gpio_sunxi_probe
                0x4a01fec8       0x34 drivers/gpio/built-in.o
 .text.gpio_sunxi_bind
                0x4a01fefc       0xf0 drivers/gpio/built-in.o
 .text.sunxi_gpio_xlate
                0x4a01ffec       0x40 drivers/gpio/built-in.o
 .text.sunxi_name_to_gpio_bank
                0x4a02002c       0x38 drivers/gpio/built-in.o
                0x4a02002c                sunxi_name_to_gpio_bank
 .text.sunxi_name_to_gpio
                0x4a020064       0x20 drivers/gpio/built-in.o
                0x4a020064                sunxi_name_to_gpio
 .text.i2c_get_adapter
                0x4a020084       0x5c drivers/i2c/built-in.o
                0x4a020084                i2c_get_adapter
 .text.i2c_init_bus
                0x4a0200e0       0x90 drivers/i2c/built-in.o
 .text.i2c_get_bus_num
                0x4a020170        0x8 drivers/i2c/built-in.o
                0x4a020170                i2c_get_bus_num
 .text.i2c_set_bus_num
                0x4a020178       0xc0 drivers/i2c/built-in.o
                0x4a020178                i2c_set_bus_num
 .text.i2c_init_all
                0x4a020238       0x14 drivers/i2c/built-in.o
                0x4a020238                i2c_init_all
 .text.i2c_probe
                0x4a02024c       0x28 drivers/i2c/built-in.o
                0x4a02024c                i2c_probe
 .text.i2c_read
                0x4a020274       0x48 drivers/i2c/built-in.o
                0x4a020274                i2c_read
 .text.i2c_write
                0x4a0202bc       0x48 drivers/i2c/built-in.o
                0x4a0202bc                i2c_write
 .text.i2c_set_bus_speed
                0x4a020304       0x64 drivers/i2c/built-in.o
                0x4a020304                i2c_set_bus_speed
 .text.i2c_get_bus_speed
                0x4a020368       0x14 drivers/i2c/built-in.o
                0x4a020368                i2c_get_bus_speed
 .text.i2c_init
                0x4a02037c       0x14 drivers/i2c/built-in.o
                0x4a02037c                i2c_init
 .text.__twsi_i2c_set_bus_speed
                0x4a020390       0x8c drivers/i2c/built-in.o
 .text.twsi_get_base
                0x4a02041c       0x30 drivers/i2c/built-in.o
 .text.twsi_i2c_set_bus_speed
                0x4a02044c       0x1c drivers/i2c/built-in.o
 .text.twsi_wait.isra.1
                0x4a020468       0x84 drivers/i2c/built-in.o
 .text.i2c_begin.isra.4
                0x4a0204ec       0x54 drivers/i2c/built-in.o
 .text.twsi_stop.isra.6
                0x4a020540       0x5c drivers/i2c/built-in.o
 .text.twsi_i2c_probe
                0x4a02059c       0x64 drivers/i2c/built-in.o
 .text.twsi_i2c_init
                0x4a020600       0x54 drivers/i2c/built-in.o
 .text.twsi_i2c_write
                0x4a020654       0xec drivers/i2c/built-in.o
 .text.twsi_i2c_read
                0x4a020740      0x128 drivers/i2c/built-in.o
 .text.find_mmc_device
                0x4a020868       0x44 drivers/mmc/built-in.o
                0x4a020868                find_mmc_device
 .text.mmc_select_hwpartp
                0x4a0208ac       0x4c drivers/mmc/built-in.o
 .text.mmc_get_dev
                0x4a0208f8       0x30 drivers/mmc/built-in.o
 .text.mmc_get_next_devnum
                0x4a020928       0x18 drivers/mmc/built-in.o
                0x4a020928                mmc_get_next_devnum
 .text.mmc_get_blk_desc
                0x4a020940        0x8 drivers/mmc/built-in.o
                0x4a020940                mmc_get_blk_desc
 .text.get_mmc_num
                0x4a020948       0x10 drivers/mmc/built-in.o
                0x4a020948                get_mmc_num
 .text.mmc_do_preinit
                0x4a020958       0x38 drivers/mmc/built-in.o
                0x4a020958                mmc_do_preinit
 .text.mmc_list_init
                0x4a020990       0x24 drivers/mmc/built-in.o
                0x4a020990                mmc_list_init
 .text.mmc_list_add
                0x4a0209b4       0x24 drivers/mmc/built-in.o
                0x4a0209b4                mmc_list_add
 .text.print_mmc_devices
                0x4a0209d8       0xc0 drivers/mmc/built-in.o
                0x4a0209d8                print_mmc_devices
 .text.mmc_create
                0x4a020a98       0xd4 drivers/mmc/built-in.o
                0x4a020a98                mmc_create
 .text.mmc_set_ios
                0x4a020b6c       0x20 drivers/mmc/built-in.o
 .text.mmc_set_capacity
                0x4a020b8c       0xb0 drivers/mmc/built-in.o
 .text.board_mmc_getwp
                0x4a020c3c        0x8 drivers/mmc/built-in.o
                0x4a020c3c                board_mmc_getwp
 .text.mmc_getwp
                0x4a020c44       0x3c drivers/mmc/built-in.o
                0x4a020c44                mmc_getwp
 .text.board_mmc_getcd
                0x4a020c80        0x8 drivers/mmc/built-in.o
                0x4a020c80                board_mmc_getcd
 .text.mmc_send_cmd
                0x4a020c88       0x18 drivers/mmc/built-in.o
                0x4a020c88                mmc_send_cmd
 .text.mmc_go_idle
                0x4a020ca0       0x4c drivers/mmc/built-in.o
 .text.mmc_send_op_cond_iter
                0x4a020cec       0x78 drivers/mmc/built-in.o
 .text.mmc_send_ext_csd
                0x4a020d64       0x4c drivers/mmc/built-in.o
 .text.sd_switch.constprop.4
                0x4a020db0       0x58 drivers/mmc/built-in.o
 .text.mmc_send_status
                0x4a020e08       0xd0 drivers/mmc/built-in.o
                0x4a020e08                mmc_send_status
 .text.mmc_set_blocklen
                0x4a020ed8       0x3c drivers/mmc/built-in.o
                0x4a020ed8                mmc_set_blocklen
 .text.mmc_bread
                0x4a020f14      0x170 drivers/mmc/built-in.o
                0x4a020f14                mmc_bread
 .text.mmc_switch
                0x4a021084       0x54 drivers/mmc/built-in.o
                0x4a021084                mmc_switch
 .text.mmc_switch_part
                0x4a0210d8       0x64 drivers/mmc/built-in.o
                0x4a0210d8                mmc_switch_part
 .text.mmc_hwpart_config
                0x4a02113c      0x474 drivers/mmc/built-in.o
                0x4a02113c                mmc_hwpart_config
 .text.mmc_getcd
                0x4a0215b0       0x3c drivers/mmc/built-in.o
                0x4a0215b0                mmc_getcd
 .text.mmc_set_clock
                0x4a0215ec       0x24 drivers/mmc/built-in.o
                0x4a0215ec                mmc_set_clock
 .text.mmc_startup
                0x4a021610      0xd38 drivers/mmc/built-in.o
 .text.board_mmc_power_init
                0x4a022348        0x4 drivers/mmc/built-in.o
                0x4a022348                board_mmc_power_init
 .text.mmc_start_init
                0x4a02234c      0x26c drivers/mmc/built-in.o
                0x4a02234c                mmc_start_init
 .text.mmc_init
                0x4a0225b8       0xf4 drivers/mmc/built-in.o
                0x4a0225b8                mmc_init
 .text.mmc_set_dsr
                0x4a0226ac        0xc drivers/mmc/built-in.o
                0x4a0226ac                mmc_set_dsr
 .text.cpu_mmc_init
                0x4a0226b8        0x8 drivers/mmc/built-in.o
                0x4a0226b8                cpu_mmc_init
 .text.mmc_initialize
                0x4a0226c0       0x54 drivers/mmc/built-in.o
                0x4a0226c0                mmc_initialize
 .text.sunxi_mmc_core_init
                0x4a022714       0x28 drivers/mmc/built-in.o
 .text.mmc_update_clk
                0x4a02273c       0x70 drivers/mmc/built-in.o
 .text.sunxi_mmc_send_cmd
                0x4a0227ac      0x36c drivers/mmc/built-in.o
 .text.sunxi_mmc_getcd_gpio
                0x4a022b18       0x3c drivers/mmc/built-in.o
 .text.sunxi_mmc_getcd
                0x4a022b54       0x30 drivers/mmc/built-in.o
 .text.mmc_set_mod_clk
                0x4a022b84      0x104 drivers/mmc/built-in.o
 .text.sunxi_mmc_set_ios
                0x4a022c88       0xc0 drivers/mmc/built-in.o
 .text.sunxi_mmc_init
                0x4a022d48      0x1a4 drivers/mmc/built-in.o
                0x4a022d48                sunxi_mmc_init
 .text.mmc_berase
                0x4a022eec      0x1a4 drivers/mmc/built-in.o
                0x4a022eec                mmc_berase
 .text.mmc_bwrite
                0x4a023090      0x1b4 drivers/mmc/built-in.o
                0x4a023090                mmc_bwrite
 .text._sun8i_write_hwaddr
                0x4a023244       0x50 drivers/net/built-in.o
 .text.sun8i_eth_write_hwaddr
                0x4a023294       0x24 drivers/net/built-in.o
 .text.sun8i_emac_eth_stop
                0x4a0232b8       0x4c drivers/net/built-in.o
 .text.sun8i_eth_free_pkt
                0x4a023304       0x48 drivers/net/built-in.o
 .text.sun8i_emac_eth_recv
                0x4a02334c       0x90 drivers/net/built-in.o
 .text.sun8i_emac_eth_send
                0x4a0233dc       0xe0 drivers/net/built-in.o
 .text.sun8i_emac_eth_start
                0x4a0234bc      0x270 drivers/net/built-in.o
 .text.sun8i_emac_eth_ofdata_to_platdata
                0x4a02372c      0x2a0 drivers/net/built-in.o
 .text.sun8i_mdio_write
                0x4a0239cc       0x8c drivers/net/built-in.o
 .text.sun8i_mdio_read
                0x4a023a58       0x90 drivers/net/built-in.o
 .text.sun8i_emac_eth_probe
                0x4a023ae8      0x1c8 drivers/net/built-in.o
 .text.genphy_shutdown
                0x4a023cb0        0x8 drivers/net/phy/built-in.o
                0x4a023cb0                genphy_shutdown
 .text.genphy_restart_aneg
                0x4a023cb8       0x54 drivers/net/phy/built-in.o
                0x4a023cb8                genphy_restart_aneg
 .text.genphy_config_aneg
                0x4a023d0c      0x208 drivers/net/phy/built-in.o
                0x4a023d0c                genphy_config_aneg
 .text.genphy_config
                0x4a023f14       0xc4 drivers/net/phy/built-in.o
                0x4a023f14                genphy_config
 .text.genphy_update_link
                0x4a023fd8      0x148 drivers/net/phy/built-in.o
                0x4a023fd8                genphy_update_link
 .text.genphy_parse_link
                0x4a024120      0x19c drivers/net/phy/built-in.o
                0x4a024120                genphy_parse_link
 .text.genphy_startup
                0x4a0242bc       0x20 drivers/net/phy/built-in.o
                0x4a0242bc                genphy_startup
 .text.phy_init
                0x4a0242dc        0x8 drivers/net/phy/built-in.o
                0x4a0242dc                phy_init
 .text.get_phy_id
                0x4a0242e4       0x6c drivers/net/phy/built-in.o
                0x4a0242e4                get_phy_id
 .text.get_phy_device_by_mask
                0x4a024350      0x2b8 drivers/net/phy/built-in.o
 .text.phy_reset
                0x4a024608       0xb0 drivers/net/phy/built-in.o
                0x4a024608                phy_reset
 .text.phy_find_by_mask
                0x4a0246b8       0x3c drivers/net/phy/built-in.o
                0x4a0246b8                phy_find_by_mask
 .text.phy_connect_dev
                0x4a0246f4       0x50 drivers/net/phy/built-in.o
                0x4a0246f4                phy_connect_dev
 .text.phy_connect
                0x4a024744       0x50 drivers/net/phy/built-in.o
                0x4a024744                phy_connect
 .text.board_phy_config
                0x4a024794       0x24 drivers/net/phy/built-in.o
                0x4a024794                board_phy_config
 .text.phy_config
                0x4a0247b8        0x4 drivers/net/phy/built-in.o
                0x4a0247b8                phy_config
 .text.phy_shutdown
                0x4a0247bc       0x20 drivers/net/phy/built-in.o
                0x4a0247bc                phy_shutdown
 .text.phy_get_interface_by_name
                0x4a0247dc       0x40 drivers/net/phy/built-in.o
                0x4a0247dc                phy_get_interface_by_name
 .text._serial_putc
                0x4a02481c       0x40 drivers/serial/built-in.o
 .text.serial_stub_putc
                0x4a02485c        0x8 drivers/serial/built-in.o
 .text.serial_stub_puts
                0x4a024864       0x28 drivers/serial/built-in.o
                0x4a024864                serial_stub_puts
 .text.serial_stub_getc
                0x4a02488c       0x2c drivers/serial/built-in.o
                0x4a02488c                serial_stub_getc
 .text.serial_stub_tstc
                0x4a0248b8       0x30 drivers/serial/built-in.o
                0x4a0248b8                serial_stub_tstc
 .text.serial_pre_remove
                0x4a0248e8        0x8 drivers/serial/built-in.o
 .text.serial_post_probe
                0x4a0248f0       0xbc drivers/serial/built-in.o
 .text.serial_init
                0x4a0249ac      0x170 drivers/serial/built-in.o
                0x4a0249ac                serial_init
 .text.serial_initialize
                0x4a024b1c        0x4 drivers/serial/built-in.o
                0x4a024b1c                serial_initialize
 .text.serial_putc
                0x4a024b20       0x18 drivers/serial/built-in.o
                0x4a024b20                serial_putc
 .text.serial_puts
                0x4a024b38       0x34 drivers/serial/built-in.o
                0x4a024b38                serial_puts
 .text.serial_getc
                0x4a024b6c       0x38 drivers/serial/built-in.o
                0x4a024b6c                serial_getc
 .text.serial_tstc
                0x4a024ba4       0x3c drivers/serial/built-in.o
                0x4a024ba4                serial_tstc
 .text.serial_setbrg
                0x4a024be0       0x38 drivers/serial/built-in.o
                0x4a024be0                serial_setbrg
 .text.on_baudrate
                0x4a024c18      0x100 drivers/serial/built-in.o
 .text.serial_stdio_init
                0x4a024d18        0x4 drivers/serial/built-in.o
                0x4a024d18                serial_stdio_init
 .text.ns16550_writeb
                0x4a024d1c       0x20 drivers/serial/built-in.o
 .text.ns16550_readb
                0x4a024d3c       0x20 drivers/serial/built-in.o
 .text.NS16550_setbrg
                0x4a024d5c       0x4c drivers/serial/built-in.o
 .text.ns16550_serial_pending
                0x4a024da8       0x38 drivers/serial/built-in.o
 .text.ns16550_serial_putc
                0x4a024de0       0x40 drivers/serial/built-in.o
 .text.ns16550_serial_getc
                0x4a024e20       0x34 drivers/serial/built-in.o
 .text.ns16550_serial_setbrg
                0x4a024e54       0x38 drivers/serial/built-in.o
 .text.ns16550_serial_ofdata_to_platdata
                0x4a024e8c       0x8c drivers/serial/built-in.o
                0x4a024e8c                ns16550_serial_ofdata_to_platdata
 .text.NS16550_init
                0x4a024f18       0x68 drivers/serial/built-in.o
                0x4a024f18                NS16550_init
 .text.ns16550_serial_probe
                0x4a024f80       0x30 drivers/serial/built-in.o
                0x4a024f80                ns16550_serial_probe
 .text.usb_child_post_bind
                0x4a024fb0       0x7c drivers/usb/host/built-in.o
                0x4a024fb0                usb_child_post_bind
 .text.remove_inactive_children.isra.1
                0x4a02502c       0x74 drivers/usb/host/built-in.o
 .text.usb_disable_asynch
                0x4a0250a0       0x20 drivers/usb/host/built-in.o
                0x4a0250a0                usb_disable_asynch
 .text.submit_int_msg
                0x4a0250c0       0x4c drivers/usb/host/built-in.o
                0x4a0250c0                submit_int_msg
 .text.submit_control_msg
                0x4a02510c       0x8c drivers/usb/host/built-in.o
                0x4a02510c                submit_control_msg
 .text.submit_bulk_msg
                0x4a025198       0x44 drivers/usb/host/built-in.o
                0x4a025198                submit_bulk_msg
 .text.usb_alloc_device
                0x4a0251dc       0x30 drivers/usb/host/built-in.o
                0x4a0251dc                usb_alloc_device
 .text.usb_reset_root_port
                0x4a02520c       0x30 drivers/usb/host/built-in.o
                0x4a02520c                usb_reset_root_port
 .text.usb_stop
                0x4a02523c       0x90 drivers/usb/host/built-in.o
                0x4a02523c                usb_stop
 .text.usb_match_device
                0x4a0252cc       0xe8 drivers/usb/host/built-in.o
                0x4a0252cc                usb_match_device
 .text.usb_match_one_id_intf
                0x4a0253b4       0x9c drivers/usb/host/built-in.o
                0x4a0253b4                usb_match_one_id_intf
 .text.usb_match_one_id
                0x4a025450       0x34 drivers/usb/host/built-in.o
                0x4a025450                usb_match_one_id
 .text.usb_get_bus
                0x4a025484       0x30 drivers/usb/host/built-in.o
                0x4a025484                usb_get_bus
 .text.usb_child_pre_probe
                0x4a0254b4       0x68 drivers/usb/host/built-in.o
                0x4a0254b4                usb_child_pre_probe
 .text.usb_scan_device
                0x4a02551c      0x2b4 drivers/usb/host/built-in.o
                0x4a02551c                usb_scan_device
 .text.usb_scan_bus.isra.2
                0x4a0257d0       0x70 drivers/usb/host/built-in.o
 .text.usb_init
                0x4a025840      0x1cc drivers/usb/host/built-in.o
                0x4a025840                usb_init
 .text.ep_rev   0x4a025a0c       0x38 drivers/usb/host/built-in.o
 .text.urb_free_priv
                0x4a025a44       0x44 drivers/usb/host/built-in.o
 .text.ohci_destroy_int_queue
                0x4a025a88       0x48 drivers/usb/host/built-in.o
 .text.hc_reset
                0x4a025ad0       0xbc drivers/usb/host/built-in.o
 .text.hc_interrupt
                0x4a025b8c      0x5bc drivers/usb/host/built-in.o
 .text.ohci_poll_int_queue
                0x4a026148       0x5c drivers/usb/host/built-in.o
 .text.ohci_get_ohci_dev
                0x4a0261a4       0x98 drivers/usb/host/built-in.o
 .text.td_fill.isra.4
                0x4a02623c       0xe0 drivers/usb/host/built-in.o
 .text.sohci_submit_job
                0x4a02631c      0x83c drivers/usb/host/built-in.o
                0x4a02631c                sohci_submit_job
 .text.ohci_create_int_queue
                0x4a026b58      0x148 drivers/usb/host/built-in.o
 .text.submit_common_msg
                0x4a026ca0      0x188 drivers/usb/host/built-in.o
 .text.ohci_submit_int_msg
                0x4a026e28       0x48 drivers/usb/host/built-in.o
 .text.ohci_submit_bulk_msg
                0x4a026e70       0x44 drivers/usb/host/built-in.o
 .text.ohci_submit_control_msg
                0x4a026eb4      0x578 drivers/usb/host/built-in.o
 .text.ohci_register
                0x4a02742c      0x158 drivers/usb/host/built-in.o
                0x4a02742c                ohci_register
 .text.ohci_deregister
                0x4a027584       0x34 drivers/usb/host/built-in.o
                0x4a027584                ohci_deregister
 .text.ohci_usb_remove
                0x4a0275b8       0x74 drivers/usb/host/built-in.o
 .text.ohci_usb_probe
                0x4a02762c       0xcc drivers/usb/host/built-in.o
 .text.ehci_get_port_speed
                0x4a0276f8        0x8 drivers/usb/host/built-in.o
 .text.ehci_set_usbmode
                0x4a027700       0x18 drivers/usb/host/built-in.o
 .text.ehci_get_portsc_register
                0x4a027718       0x14 drivers/usb/host/built-in.o
 .text.ehci_td_buffer
                0x4a02772c       0x88 drivers/usb/host/built-in.o
 .text.ehci_get_ctrl
                0x4a0277b4       0x14 drivers/usb/host/built-in.o
 .text.handshake
                0x4a0277c8       0x58 drivers/usb/host/built-in.o
 .text._ehci_poll_int_queue
                0x4a027820       0xc4 drivers/usb/host/built-in.o
 .text.ehci_poll_int_queue
                0x4a0278e4        0xc drivers/usb/host/built-in.o
 .text.ehci_update_endpt2_dev_n_port
                0x4a0278f0       0x58 drivers/usb/host/built-in.o
 .text.ehci_submit_async
                0x4a027948      0x5bc drivers/usb/host/built-in.o
 .text.ehci_submit_bulk_msg
                0x4a027f04       0x34 drivers/usb/host/built-in.o
 .text.ehci_powerup_fixup
                0x4a027f38        0x8 drivers/usb/host/built-in.o
 .text.ehci_shutdown
                0x4a027f40       0x94 drivers/usb/host/built-in.o
 .text.disable_periodic
                0x4a027fd4       0x4c drivers/usb/host/built-in.o
 .text.enable_periodic
                0x4a028020       0x54 drivers/usb/host/built-in.o
 .text._ehci_destroy_int_queue
                0x4a028074       0xdc drivers/usb/host/built-in.o
 .text.ehci_destroy_int_queue
                0x4a028150        0xc drivers/usb/host/built-in.o
 .text._ehci_create_int_queue.isra.2
                0x4a02815c      0x3a8 drivers/usb/host/built-in.o
 .text.ehci_create_int_queue
                0x4a028504       0x20 drivers/usb/host/built-in.o
 .text.ehci_submit_int_msg
                0x4a028524       0xb8 drivers/usb/host/built-in.o
 .text.ehci_submit_control_msg
                0x4a0285dc      0x548 drivers/usb/host/built-in.o
 .text.ehci_register
                0x4a028b24      0x300 drivers/usb/host/built-in.o
                0x4a028b24                ehci_register
 .text.ehci_deregister
                0x4a028e24       0x20 drivers/usb/host/built-in.o
                0x4a028e24                ehci_deregister
 .text.ehci_usb_remove
                0x4a028e44       0x58 drivers/usb/host/built-in.o
 .text.ehci_usb_probe
                0x4a028e9c       0xb4 drivers/usb/host/built-in.o
 .text.fs_probe_unsupported
                0x4a028f50       0x18 fs/built-in.o
 .text.fs_ls_unsupported
                0x4a028f68        0x8 fs/built-in.o
 .text.fs_exists_unsupported
                0x4a028f70        0x8 fs/built-in.o
 .text.fs_size_unsupported
                0x4a028f78        0x8 fs/built-in.o
 .text.fs_read_unsupported
                0x4a028f80        0x8 fs/built-in.o
 .text.fs_write_unsupported
                0x4a028f88        0x8 fs/built-in.o
 .text.fs_close_unsupported
                0x4a028f90        0x4 fs/built-in.o
 .text.fs_uuid_unsupported
                0x4a028f94        0x8 fs/built-in.o
 .text.fs_get_info
                0x4a028f9c       0x30 fs/built-in.o
 .text.fs_close
                0x4a028fcc       0x28 fs/built-in.o
 .text.fs_set_blk_dev
                0x4a028ff4       0xac fs/built-in.o
                0x4a028ff4                fs_set_blk_dev
 .text.fs_ls    0x4a0290a0       0x3c fs/built-in.o
                0x4a0290a0                fs_ls
 .text.fs_exists
                0x4a0290dc       0x34 fs/built-in.o
                0x4a0290dc                fs_exists
 .text.fs_size  0x4a029110       0x3c fs/built-in.o
                0x4a029110                fs_size
 .text.fs_read  0x4a02914c       0xa4 fs/built-in.o
                0x4a02914c                fs_read
 .text.fs_write
                0x4a0291f0       0x8c fs/built-in.o
                0x4a0291f0                fs_write
 .text.do_size  0x4a02927c       0x5c fs/built-in.o
                0x4a02927c                do_size
 .text.do_load  0x4a0292d8      0x258 fs/built-in.o
                0x4a0292d8                do_load
 .text.do_ls    0x4a029530       0x6c fs/built-in.o
                0x4a029530                do_ls
 .text.file_exists
                0x4a02959c       0x2c fs/built-in.o
                0x4a02959c                file_exists
 .text.do_save  0x4a0295c8      0x180 fs/built-in.o
                0x4a0295c8                do_save
 .text.do_fs_type
                0x4a029748       0x7c fs/built-in.o
                0x4a029748                do_fs_type
 .text.get_fs   0x4a0297c4        0xc fs/built-in.o
                0x4a0297c4                get_fs
 .text.ext4fs_free_node
                0x4a0297d0       0x20 fs/built-in.o
                0x4a0297d0                ext4fs_free_node
 .text.ext4fs_read_file
                0x4a0297f0      0x37c fs/built-in.o
                0x4a0297f0                ext4fs_read_file
 .text.ext4fs_ls
                0x4a029b6c       0x74 fs/built-in.o
                0x4a029b6c                ext4fs_ls
 .text.ext4fs_exists
                0x4a029be0       0x18 fs/built-in.o
                0x4a029be0                ext4fs_exists
 .text.ext4fs_size
                0x4a029bf8        0x4 fs/built-in.o
                0x4a029bf8                ext4fs_size
 .text.ext4fs_read
                0x4a029bfc       0x54 fs/built-in.o
                0x4a029bfc                ext4fs_read
 .text.ext4fs_probe
                0x4a029c50       0x30 fs/built-in.o
                0x4a029c50                ext4fs_probe
 .text.ext4_read_file
                0x4a029c80       0x7c fs/built-in.o
                0x4a029c80                ext4_read_file
 .text.ext4fs_uuid
                0x4a029cfc       0x38 fs/built-in.o
                0x4a029cfc                ext4fs_uuid
 .text.ext4fs_read_inode
                0x4a029d34      0x130 fs/built-in.o
                0x4a029d34                ext4fs_read_inode
 .text.read_allocated_block
                0x4a029e64      0x988 fs/built-in.o
                0x4a029e64                read_allocated_block
 .text.ext4fs_reinit_global
                0x4a02a7ec       0xbc fs/built-in.o
                0x4a02a7ec                ext4fs_reinit_global
 .text.ext4fs_close
                0x4a02a8a8       0x60 fs/built-in.o
                0x4a02a8a8                ext4fs_close
 .text.ext4fs_iterate_dir
                0x4a02a908      0x2d0 fs/built-in.o
                0x4a02a908                ext4fs_iterate_dir
 .text.ext4fs_find_file1
                0x4a02abd8      0x2e4 fs/built-in.o
 .text.ext4fs_find_file
                0x4a02aebc       0x70 fs/built-in.o
                0x4a02aebc                ext4fs_find_file
 .text.ext4fs_open
                0x4a02af2c       0xac fs/built-in.o
                0x4a02af2c                ext4fs_open
 .text.ext4fs_mount
                0x4a02afd8       0xe4 fs/built-in.o
                0x4a02afd8                ext4fs_mount
 .text.ext4fs_set_blk_dev
                0x4a02b0bc       0x6c fs/built-in.o
                0x4a02b0bc                ext4fs_set_blk_dev
 .text.ext4fs_devread
                0x4a02b128      0x264 fs/built-in.o
                0x4a02b128                ext4fs_devread
 .text.ext4_read_superblock
                0x4a02b38c       0x3c fs/built-in.o
                0x4a02b38c                ext4_read_superblock
 .text.downcase
                0x4a02b3c8       0x30 fs/built-in.o
 .text.disk_read
                0x4a02b3f8       0x64 fs/built-in.o
 .text.dirdelim
                0x4a02b45c       0x34 fs/built-in.o
 .text.get_fatent
                0x4a02b490      0x150 fs/built-in.o
 .text.mkcksum  0x4a02b5e0       0x54 fs/built-in.o
 .text.get_name
                0x4a02b634       0xc4 fs/built-in.o
 .text.read_bootsectandvi
                0x4a02b6f8      0x128 fs/built-in.o
 .text.get_cluster
                0x4a02b820      0x174 fs/built-in.o
 .text.set_name
                0x4a02b994      0x134 fs/built-in.o
 .text.check_overflow
                0x4a02bac8       0xa8 fs/built-in.o
 .text.slot2str
                0x4a02bb70       0xcc fs/built-in.o
 .text.get_vfatname
                0x4a02bc3c      0x1c8 fs/built-in.o
 .text.disk_write
                0x4a02be04       0x94 fs/built-in.o
 .text.flush_fat_buffer
                0x4a02be98       0x84 fs/built-in.o
 .text.set_fatent_value
                0x4a02bf1c       0xf8 fs/built-in.o
 .text.set_cluster
                0x4a02c014      0x170 fs/built-in.o
 .text.get_fatent_value
                0x4a02c184      0x1a8 fs/built-in.o
 .text.find_empty_cluster
                0x4a02c32c       0x2c fs/built-in.o
 .text.flush_dir_table.constprop.13
                0x4a02c358       0xd4 fs/built-in.o
 .text.do_fat_write
                0x4a02c42c      0xc30 fs/built-in.o
 .text.fat_set_blk_dev
                0x4a02d05c       0xcc fs/built-in.o
                0x4a02d05c                fat_set_blk_dev
 .text.do_fat_read_at
                0x4a02d128      0xd84 fs/built-in.o
                0x4a02d128                do_fat_read_at
 .text.do_fat_read
                0x4a02deac       0x3c fs/built-in.o
                0x4a02deac                do_fat_read
 .text.file_fat_detectfs
                0x4a02dee8      0x14c fs/built-in.o
                0x4a02dee8                file_fat_detectfs
 .text.file_fat_ls
                0x4a02e034       0x2c fs/built-in.o
                0x4a02e034                file_fat_ls
 .text.fat_exists
                0x4a02e060       0x44 fs/built-in.o
                0x4a02e060                fat_exists
 .text.fat_size
                0x4a02e0a4       0x38 fs/built-in.o
                0x4a02e0a4                fat_size
 .text.file_fat_read_at
                0x4a02e0dc       0x60 fs/built-in.o
                0x4a02e0dc                file_fat_read_at
 .text.fat_read_file
                0x4a02e13c       0x48 fs/built-in.o
                0x4a02e13c                fat_read_file
 .text.fat_close
                0x4a02e184        0x4 fs/built-in.o
                0x4a02e184                fat_close
 .text.file_fat_write
                0x4a02e188       0x5c fs/built-in.o
                0x4a02e188                file_fat_write
 .text.efi_return_handle
                0x4a02e1e4        0xc lib/built-in.o
                0x4a02e1e4                efi_return_handle
 .text.efi_load_pe
                0x4a02e1f0      0x2d0 lib/built-in.o
                0x4a02e1f0                efi_load_pe
 .text.efi_save_gd
                0x4a02e4c0       0x10 lib/built-in.o
                0x4a02e4c0                efi_save_gd
 .text.efi_restore_gd
                0x4a02e4d0       0x2c lib/built-in.o
                0x4a02e4d0                efi_restore_gd
 .text.efi_set_mem
                0x4a02e4fc       0x28 lib/built-in.o
 .text.efi_copy_mem
                0x4a02e524       0x28 lib/built-in.o
 .text.efi_exit
                0x4a02e54c       0x2c lib/built-in.o
 .text.efi_calculate_crc32
                0x4a02e578       0x3c lib/built-in.o
 .text.efi_uninstall_multiple_protocol_interfaces
                0x4a02e5b4       0x28 lib/built-in.o
 .text.efi_install_multiple_protocol_interfaces
                0x4a02e5dc       0x28 lib/built-in.o
 .text.efi_locate_protocol
                0x4a02e604       0x4c lib/built-in.o
 .text.efi_locate_handle_buffer
                0x4a02e650       0x1c lib/built-in.o
 .text.efi_protocols_per_handle
                0x4a02e66c       0x1c lib/built-in.o
 .text.efi_open_protocol_information
                0x4a02e688       0x1c lib/built-in.o
 .text.efi_close_protocol
                0x4a02e6a4       0x1c lib/built-in.o
 .text.efi_open_protocol
                0x4a02e6c0       0xbc lib/built-in.o
 .text.efi_handle_protocol
                0x4a02e77c       0x18 lib/built-in.o
 .text.efi_disconnect_controller
                0x4a02e794       0x1c lib/built-in.o
 .text.efi_connect_controller
                0x4a02e7b0       0x1c lib/built-in.o
 .text.efi_set_watchdog_timer
                0x4a02e7cc       0x1c lib/built-in.o
 .text.efi_stall
                0x4a02e7e8       0x28 lib/built-in.o
 .text.efi_get_next_monotonic_count
                0x4a02e810       0x44 lib/built-in.o
 .text.efi_exit_boot_services
                0x4a02e854       0x38 lib/built-in.o
 .text.efi_unload_image
                0x4a02e88c       0x6c lib/built-in.o
 .text.efi_start_image
                0x4a02e8f8       0x70 lib/built-in.o
 .text.efi_load_image
                0x4a02e968       0xc0 lib/built-in.o
 .text.efi_install_configuration_table
                0x4a02ea28       0xac lib/built-in.o
 .text.efi_locate_device_path
                0x4a02ead4       0x1c lib/built-in.o
 .text.efi_locate_handle
                0x4a02eaf0      0x13c lib/built-in.o
 .text.efi_register_protocol_notify
                0x4a02ec2c       0x1c lib/built-in.o
 .text.efi_uninstall_protocol_interface
                0x4a02ec48       0x1c lib/built-in.o
 .text.efi_reinstall_protocol_interface
                0x4a02ec64       0x1c lib/built-in.o
 .text.efi_install_protocol_interface
                0x4a02ec80       0x1c lib/built-in.o
 .text.efi_check_event
                0x4a02ec9c       0x1c lib/built-in.o
 .text.efi_close_event
                0x4a02ecb8       0x30 lib/built-in.o
 .text.efi_signal_event
                0x4a02ece8       0x1c lib/built-in.o
 .text.efi_set_timer
                0x4a02ed04       0xd4 lib/built-in.o
 .text.efi_create_event
                0x4a02edd8       0x58 lib/built-in.o
 .text.efi_free_pool
                0x4a02ee30       0x2c lib/built-in.o
 .text.efi_allocate_pool
                0x4a02ee5c       0x40 lib/built-in.o
 .text.efi_restore_tpl
                0x4a02ee9c       0x18 lib/built-in.o
 .text.efi_raise_tpl
                0x4a02eeb4       0x1c lib/built-in.o
 .text.efi_get_memory_map_ext
                0x4a02eed0       0x44 lib/built-in.o
                0x4a02eed0                efi_get_memory_map_ext
 .text.efi_free_pages_ext
                0x4a02ef14       0x34 lib/built-in.o
                0x4a02ef14                efi_free_pages_ext
 .text.efi_allocate_pages_ext
                0x4a02ef48       0x3c lib/built-in.o
                0x4a02ef48                efi_allocate_pages_ext
 .text.efi_exit_func
                0x4a02ef84       0x10 lib/built-in.o
                0x4a02ef84                efi_exit_func
 .text.efi_timer_check
                0x4a02ef94       0x68 lib/built-in.o
                0x4a02ef94                efi_timer_check
 .text.efi_wait_for_event
                0x4a02effc       0x48 lib/built-in.o
 .text.efi_get_time
                0x4a02f044        0x8 lib/built-in.o
 .text.efi_reset_system
                0x4a02f04c       0x34 lib/built-in.o
 .text.efi_runtime_relocate
                0x4a02f080      0x13c lib/built-in.o
                0x4a02f080                efi_runtime_relocate
 .text.efi_set_virtual_address_map
                0x4a02f1bc       0xb4 lib/built-in.o
 .text.efi_cin_reset
                0x4a02f270       0x14 lib/built-in.o
 .text.efi_cout_set_attribute
                0x4a02f284       0x14 lib/built-in.o
 .text.efi_cout_test_string
                0x4a02f298       0x14 lib/built-in.o
 .text.efi_cout_reset
                0x4a02f2ac       0x14 lib/built-in.o
 .text.efi_cin_lock_std_in
                0x4a02f2c0       0x14 lib/built-in.o
 .text.efi_cin_set_mode
                0x4a02f2d4       0x14 lib/built-in.o
 .text.efi_cin_get_mode
                0x4a02f2e8       0x44 lib/built-in.o
 .text.efi_cin_read_key_stroke
                0x4a02f32c      0x130 lib/built-in.o
 .text.efi_cout_enable_cursor
                0x4a02f45c       0x30 lib/built-in.o
 .text.efi_cout_set_cursor_position
                0x4a02f48c       0x40 lib/built-in.o
 .text.efi_cout_clear_screen
                0x4a02f4cc       0x20 lib/built-in.o
 .text.efi_cout_query_mode
                0x4a02f4ec      0x168 lib/built-in.o
 .text.efi_cout_output_string
                0x4a02f654       0xf0 lib/built-in.o
 .text.efi_cout_set_mode
                0x4a02f744       0x20 lib/built-in.o
 .text.efi_mem_cmp
                0x4a02f764       0x24 lib/built-in.o
 .text.efi_find_free_memory
                0x4a02f788       0xc4 lib/built-in.o
 .text.efi_add_memory_map
                0x4a02f84c      0x318 lib/built-in.o
                0x4a02f84c                efi_add_memory_map
 .text.efi_allocate_pages
                0x4a02fb64       0xb0 lib/built-in.o
                0x4a02fb64                efi_allocate_pages
 .text.efi_alloc
                0x4a02fc14       0x4c lib/built-in.o
                0x4a02fc14                efi_alloc
 .text.efi_free_pages
                0x4a02fc60        0x8 lib/built-in.o
                0x4a02fc60                efi_free_pages
 .text.efi_get_memory_map
                0x4a02fc68       0xbc lib/built-in.o
                0x4a02fc68                efi_get_memory_map
 .text.efi_memory_init
                0x4a02fd24       0xd0 lib/built-in.o
                0x4a02fd24                efi_memory_init
 .text.efi_disk_open_block
                0x4a02fdf4       0x10 lib/built-in.o
 .text.efi_disk_open_dp
                0x4a02fe04       0x10 lib/built-in.o
 .text.efi_disk_flush_blocks
                0x4a02fe14       0x14 lib/built-in.o
 .text.efi_disk_reset
                0x4a02fe28       0x14 lib/built-in.o
 .text.efi_disk_add_dev.part.3
                0x4a02fe3c      0x150 lib/built-in.o
 .text.efi_disk_rw_blocks.isra.4
                0x4a02ff8c       0x7c lib/built-in.o
 .text.efi_disk_write_blocks
                0x4a030008       0x48 lib/built-in.o
 .text.efi_disk_read_blocks
                0x4a030050       0x48 lib/built-in.o
 .text.efi_disk_register
                0x4a030098      0x170 lib/built-in.o
                0x4a030098                efi_disk_register
 .text.efi_net_push
                0x4a030208       0x14 lib/built-in.o
 .text.efi_net_open_dp
                0x4a03021c       0x10 lib/built-in.o
 .text.efi_net_open_pxe
                0x4a03022c       0x10 lib/built-in.o
 .text.efi_net_get_status
                0x4a03023c       0x40 lib/built-in.o
 .text.efi_net_nvdata
                0x4a03027c       0x14 lib/built-in.o
 .text.efi_net_mcastiptomac
                0x4a030290       0x14 lib/built-in.o
 .text.efi_net_statistics
                0x4a0302a4       0x14 lib/built-in.o
 .text.efi_net_station_address
                0x4a0302b8       0x14 lib/built-in.o
 .text.efi_net_receive_filters
                0x4a0302cc       0x14 lib/built-in.o
 .text.efi_net_shutdown
                0x4a0302e0       0x14 lib/built-in.o
 .text.efi_net_reset
                0x4a0302f4       0x14 lib/built-in.o
 .text.efi_net_stop
                0x4a030308       0x14 lib/built-in.o
 .text.efi_net_start
                0x4a03031c       0x14 lib/built-in.o
 .text.efi_net_initialize
                0x4a030330       0x18 lib/built-in.o
 .text.efi_net_receive
                0x4a030348       0x94 lib/built-in.o
 .text.efi_net_transmit
                0x4a0303dc       0x44 lib/built-in.o
 .text.efi_net_set_dhcp_ack
                0x4a030420       0x48 lib/built-in.o
                0x4a030420                efi_net_set_dhcp_ack
 .text.efi_net_register
                0x4a030468      0x21c lib/built-in.o
                0x4a030468                efi_net_register
 .text.zcfree   0x4a030684        0x8 lib/built-in.o
                0x4a030684                zcfree
 .text.zcalloc  0x4a03068c        0x8 lib/built-in.o
                0x4a03068c                zcalloc
 .text.inflate_fast
                0x4a030694      0x5c8 lib/built-in.o
                0x4a030694                inflate_fast
 .text.inflate_table
                0x4a030c5c      0x5c0 lib/built-in.o
                0x4a030c5c                inflate_table
 .text.inflateReset
                0x4a03121c       0x80 lib/built-in.o
                0x4a03121c                inflateReset
 .text.inflateInit2_
                0x4a03129c      0x104 lib/built-in.o
                0x4a03129c                inflateInit2_
 .text.inflateEnd
                0x4a0313a0       0x6c lib/built-in.o
                0x4a0313a0                inflateEnd
 .text.adler32  0x4a03140c      0x2e8 lib/built-in.o
                0x4a03140c                adler32
 .text.inflate  0x4a0316f4     0x164c lib/built-in.o
                0x4a0316f4                inflate
 .text.crc16_ccitt
                0x4a032d40       0x3c lib/built-in.o
                0x4a032d40                crc16_ccitt
 .text.gzfree   0x4a032d7c        0x8 lib/built-in.o
                0x4a032d7c                gzfree
 .text.gzalloc  0x4a032d84       0x10 lib/built-in.o
                0x4a032d84                gzalloc
 .text.zunzip   0x4a032d94      0x11c lib/built-in.o
                0x4a032d94                zunzip
 .text.gunzip   0x4a032eb0       0xac lib/built-in.o
                0x4a032eb0                gunzip
 .text.initcall_run_list
                0x4a032f5c       0x60 lib/built-in.o
                0x4a032f5c                initcall_run_list
 .text.lmb_add_region
                0x4a032fbc      0x1c8 lib/built-in.o
 .text.lmb_init
                0x4a033184       0x28 lib/built-in.o
                0x4a033184                lmb_init
 .text.lmb_add  0x4a0331ac        0x4 lib/built-in.o
                0x4a0331ac                lmb_add
 .text.lmb_free
                0x4a0331b0      0x124 lib/built-in.o
                0x4a0331b0                lmb_free
 .text.lmb_reserve
                0x4a0332d4        0x8 lib/built-in.o
                0x4a0332d4                lmb_reserve
 .text.__lmb_alloc_base
                0x4a0332dc      0x178 lib/built-in.o
                0x4a0332dc                __lmb_alloc_base
 .text.lmb_alloc_base
                0x4a033454       0x34 lib/built-in.o
                0x4a033454                lmb_alloc_base
 .text.lmb_alloc
                0x4a033488        0x8 lib/built-in.o
                0x4a033488                lmb_alloc
 .text.board_lmb_reserve
                0x4a033490        0x4 lib/built-in.o
                0x4a033490                board_lmb_reserve
 .text.string_to_ip
                0x4a033494       0x5c lib/built-in.o
                0x4a033494                string_to_ip
 .text.qsort    0x4a0334f0       0xd0 lib/built-in.o
                0x4a0334f0                qsort
 .text.strcmp_compar
                0x4a0335c0        0xc lib/built-in.o
                0x4a0335c0                strcmp_compar
 .text.merge    0x4a0335cc       0x64 lib/built-in.o
 .text.list_sort
                0x4a033630      0x198 lib/built-in.o
                0x4a033630                list_sort
 .text.fdt_check_header
                0x4a0337c8       0x74 lib/built-in.o
                0x4a0337c8                fdt_check_header
 .text.fdt_offset_ptr
                0x4a03383c       0x54 lib/built-in.o
                0x4a03383c                fdt_offset_ptr
 .text.fdt_next_tag
                0x4a033890       0xf4 lib/built-in.o
                0x4a033890                fdt_next_tag
 .text._fdt_check_node_offset
                0x4a033984       0x34 lib/built-in.o
                0x4a033984                _fdt_check_node_offset
 .text._fdt_check_prop_offset
                0x4a0339b8       0x34 lib/built-in.o
                0x4a0339b8                _fdt_check_prop_offset
 .text.fdt_next_node
                0x4a0339ec       0xb8 lib/built-in.o
                0x4a0339ec                fdt_next_node
 .text.fdt_first_subnode
                0x4a033aa4       0x30 lib/built-in.o
                0x4a033aa4                fdt_first_subnode
 .text.fdt_next_subnode
                0x4a033ad4       0x4c lib/built-in.o
                0x4a033ad4                fdt_next_subnode
 .text._fdt_find_string
                0x4a033b20       0x58 lib/built-in.o
                0x4a033b20                _fdt_find_string
 .text.fdt_move
                0x4a033b78       0x44 lib/built-in.o
                0x4a033b78                fdt_move
 .text.fdt_path_next_separator
                0x4a033bbc       0x5c lib/built-in.o
 .text._nextprop
                0x4a033c18       0x50 lib/built-in.o
 .text.fdt_string
                0x4a033c68       0x14 lib/built-in.o
                0x4a033c68                fdt_string
 .text.fdt_get_mem_rsv
                0x4a033c7c       0x8c lib/built-in.o
                0x4a033c7c                fdt_get_mem_rsv
 .text.fdt_num_mem_rsv
                0x4a033d08       0x5c lib/built-in.o
                0x4a033d08                fdt_num_mem_rsv
 .text.fdt_subnode_offset_namelen
                0x4a033d64       0xd0 lib/built-in.o
                0x4a033d64                fdt_subnode_offset_namelen
 .text.fdt_subnode_offset
                0x4a033e34       0x30 lib/built-in.o
                0x4a033e34                fdt_subnode_offset
 .text.fdt_get_name
                0x4a033e64       0x70 lib/built-in.o
                0x4a033e64                fdt_get_name
 .text.fdt_first_property_offset
                0x4a033ed4       0x20 lib/built-in.o
                0x4a033ed4                fdt_first_property_offset
 .text.fdt_next_property_offset
                0x4a033ef4       0x20 lib/built-in.o
                0x4a033ef4                fdt_next_property_offset
 .text.fdt_get_property_by_offset
                0x4a033f14       0x5c lib/built-in.o
                0x4a033f14                fdt_get_property_by_offset
 .text.fdt_get_property_namelen
                0x4a033f70       0xb8 lib/built-in.o
                0x4a033f70                fdt_get_property_namelen
 .text.fdt_get_property
                0x4a034028       0x38 lib/built-in.o
                0x4a034028                fdt_get_property
 .text.fdt_getprop_namelen
                0x4a034060       0x1c lib/built-in.o
                0x4a034060                fdt_getprop_namelen
 .text.fdt_getprop_by_offset
                0x4a03407c       0x48 lib/built-in.o
                0x4a03407c                fdt_getprop_by_offset
 .text.fdt_getprop
                0x4a0340c4       0x38 lib/built-in.o
                0x4a0340c4                fdt_getprop
 .text.fdt_get_phandle
                0x4a0340fc       0x6c lib/built-in.o
                0x4a0340fc                fdt_get_phandle
 .text.fdt_get_alias_namelen
                0x4a034168       0x50 lib/built-in.o
                0x4a034168                fdt_get_alias_namelen
 .text.fdt_path_offset_namelen
                0x4a0341b8       0xe8 lib/built-in.o
                0x4a0341b8                fdt_path_offset_namelen
 .text.fdt_get_alias
                0x4a0342a0       0x28 lib/built-in.o
                0x4a0342a0                fdt_get_alias
 .text.fdt_supernode_atdepth_offset
                0x4a0342c8       0xb4 lib/built-in.o
                0x4a0342c8                fdt_supernode_atdepth_offset
 .text.fdt_node_depth
                0x4a03437c       0x24 lib/built-in.o
                0x4a03437c                fdt_node_depth
 .text.fdt_parent_offset
                0x4a0343a0       0x30 lib/built-in.o
                0x4a0343a0                fdt_parent_offset
 .text.fdt_node_offset_by_phandle
                0x4a0343d0       0x70 lib/built-in.o
                0x4a0343d0                fdt_node_offset_by_phandle
 .text.fdt_stringlist_contains
                0x4a034440       0x7c lib/built-in.o
                0x4a034440                fdt_stringlist_contains
 .text.fdt_find_string
                0x4a0344bc       0x84 lib/built-in.o
                0x4a0344bc                fdt_find_string
 .text.fdt_get_string_index
                0x4a034540       0x60 lib/built-in.o
                0x4a034540                fdt_get_string_index
 .text.fdt_node_check_compatible
                0x4a0345a0       0x3c lib/built-in.o
                0x4a0345a0                fdt_node_check_compatible
 .text._fdt_splice
                0x4a0345dc       0x78 lib/built-in.o
 .text._fdt_find_add_string
                0x4a034654       0xa4 lib/built-in.o
 .text._fdt_splice_struct
                0x4a0346f8       0x4c lib/built-in.o
 .text._fdt_splice_mem_rsv
                0x4a034744       0x58 lib/built-in.o
 .text._fdt_packblocks
                0x4a03479c       0x8c lib/built-in.o
 .text._fdt_add_property
                0x4a034828       0x90 lib/built-in.o
 .text._fdt_blocks_misordered
                0x4a0348b8       0x6c lib/built-in.o
 .text._fdt_rw_check_header
                0x4a034924       0x5c lib/built-in.o
 .text.fdt_add_mem_rsv
                0x4a034980       0xc4 lib/built-in.o
                0x4a034980                fdt_add_mem_rsv
 .text.fdt_del_mem_rsv
                0x4a034a44       0x58 lib/built-in.o
                0x4a034a44                fdt_del_mem_rsv
 .text.fdt_setprop
                0x4a034a9c       0xd0 lib/built-in.o
                0x4a034a9c                fdt_setprop
 .text.fdt_appendprop
                0x4a034b6c       0xe0 lib/built-in.o
                0x4a034b6c                fdt_appendprop
 .text.fdt_delprop
                0x4a034c4c       0x64 lib/built-in.o
                0x4a034c4c                fdt_delprop
 .text.fdt_add_subnode_namelen
                0x4a034cb0       0xf0 lib/built-in.o
                0x4a034cb0                fdt_add_subnode_namelen
 .text.fdt_add_subnode
                0x4a034da0       0x30 lib/built-in.o
                0x4a034da0                fdt_add_subnode
 .text.fdt_del_node
                0x4a034dd0       0x5c lib/built-in.o
                0x4a034dd0                fdt_del_node
 .text.fdt_open_into
                0x4a034e2c      0x198 lib/built-in.o
                0x4a034e2c                fdt_open_into
 .text.fdt_strerror
                0x4a034fc4       0x50 lib/built-in.o
                0x4a034fc4                fdt_strerror
 .text._fdt_node_end_offset
                0x4a035014       0x40 lib/built-in.o
                0x4a035014                _fdt_node_end_offset
 .text.fdt_address_cells
                0x4a035054       0x48 lib/built-in.o
                0x4a035054                fdt_address_cells
 .text.fdt_size_cells
                0x4a03509c       0x44 lib/built-in.o
                0x4a03509c                fdt_size_cells
 .text.fdtdec_get_int
                0x4a0350e0       0x30 lib/built-in.o
                0x4a0350e0                fdtdec_get_int
 .text.get_prop_check_min_len
                0x4a035110       0x38 lib/built-in.o
 .text.fdtdec_get_is_enabled
                0x4a035148       0x3c lib/built-in.o
                0x4a035148                fdtdec_get_is_enabled
 .text.fdtdec_get_alias_seq
                0x4a035184      0x120 lib/built-in.o
                0x4a035184                fdtdec_get_alias_seq
 .text.fdtdec_get_chosen_prop
                0x4a0352a4       0x44 lib/built-in.o
                0x4a0352a4                fdtdec_get_chosen_prop
 .text.fdtdec_get_chosen_node
                0x4a0352e8       0x34 lib/built-in.o
                0x4a0352e8                fdtdec_get_chosen_node
 .text.fdtdec_prepare_fdt
                0x4a03531c       0x40 lib/built-in.o
                0x4a03531c                fdtdec_prepare_fdt
 .text.fdtdec_lookup_phandle
                0x4a03535c       0x34 lib/built-in.o
                0x4a03535c                fdtdec_lookup_phandle
 .text.fdtdec_get_int_array
                0x4a035390       0x68 lib/built-in.o
                0x4a035390                fdtdec_get_int_array
 .text.fdtdec_get_config_int
                0x4a0353f8       0x50 lib/built-in.o
                0x4a0353f8                fdtdec_get_config_int
 .text.fdtdec_get_config_string
                0x4a035448       0x48 lib/built-in.o
                0x4a035448                fdtdec_get_config_string
 .text.fdtdec_setup
                0x4a035490       0x34 lib/built-in.o
                0x4a035490                fdtdec_setup
 .text.cmpkey   0x4a0354c4       0x14 lib/built-in.o
 .text.match_string
                0x4a0354d8       0xb8 lib/built-in.o
 .text.match_entry
                0x4a035590       0xc0 lib/built-in.o
 .text._hdelete.isra.1
                0x4a035650       0x50 lib/built-in.o
 .text.drop_var_from_set.part.2
                0x4a0356a0       0x50 lib/built-in.o
 .text.hcreate_r
                0x4a0356f0       0xac lib/built-in.o
                0x4a0356f0                hcreate_r
 .text.hdestroy_r
                0x4a03579c       0x74 lib/built-in.o
                0x4a03579c                hdestroy_r
 .text.hmatch_r
                0x4a035810       0xa0 lib/built-in.o
                0x4a035810                hmatch_r
 .text.hsearch_r
                0x4a0358b0      0x4a4 lib/built-in.o
                0x4a0358b0                hsearch_r
 .text.hdelete_r
                0x4a035d54       0xe8 lib/built-in.o
                0x4a035d54                hdelete_r
 .text.hexport_r
                0x4a035e3c      0x298 lib/built-in.o
                0x4a035e3c                hexport_r
 .text.himport_r
                0x4a0360d4      0x3e0 lib/built-in.o
                0x4a0360d4                himport_r
 .text.hwalk_r  0x4a0364b4       0x58 lib/built-in.o
                0x4a0364b4                hwalk_r
 .text.display_options
                0x4a03650c       0x20 lib/built-in.o
                0x4a03650c                display_options
 .text.print_size
                0x4a03652c      0x134 lib/built-in.o
                0x4a03652c                print_size
 .text.print_buffer
                0x4a036660      0x1a8 lib/built-in.o
                0x4a036660                print_buffer
 .text.crc32_no_comp
                0x4a036808       0xe0 lib/built-in.o
                0x4a036808                crc32_no_comp
 .text.crc32    0x4a0368e8       0x14 lib/built-in.o
                0x4a0368e8                crc32
 .text.crc32_wd
                0x4a0368fc        0x4 lib/built-in.o
                0x4a0368fc                crc32_wd
 .text.__div64_32
                0x4a036900       0xe8 lib/built-in.o
                0x4a036900                __div64_32
 .text.hang     0x4a0369e8       0x1c lib/built-in.o
                0x4a0369e8                hang
 .text.skip_spaces
                0x4a036a04       0x28 lib/built-in.o
                0x4a036a04                skip_spaces
 .text.strim    0x4a036a2c       0x58 lib/built-in.o
                0x4a036a2c                strim
 .text.emit     0x4a036a84       0x24 lib/built-in.o
 .text.store_char_in_data
                0x4a036aa8       0x28 lib/built-in.o
 .text.get_escape_char
                0x4a036ad0       0x80 lib/built-in.o
 .text.match    0x4a036b50      0x3fc lib/built-in.o
 .text.loop_greedy
                0x4a036f4c       0x90 lib/built-in.o
 .text.loop_non_greedy
                0x4a036fdc       0x8c lib/built-in.o
 .text.quantifier
                0x4a037068       0xb8 lib/built-in.o
 .text.fixup_branch.part.0
                0x4a037120       0x38 lib/built-in.o
 .text.compile  0x4a037158      0x3cc lib/built-in.o
 .text.slre_compile
                0x4a037524       0xb4 lib/built-in.o
                0x4a037524                slre_compile
 .text.slre_match
                0x4a0375d8       0x94 lib/built-in.o
                0x4a0375d8                slre_match
 .text.strncasecmp
                0x4a03766c       0x78 lib/built-in.o
                0x4a03766c                strncasecmp
 .text.strcpy   0x4a0376e4       0x18 lib/built-in.o
                0x4a0376e4                strcpy
 .text.strncpy  0x4a0376fc       0x24 lib/built-in.o
                0x4a0376fc                strncpy
 .text.strcat   0x4a037720       0x2c lib/built-in.o
                0x4a037720                strcat
 .text.strncat  0x4a03774c       0x54 lib/built-in.o
                0x4a03774c                strncat
 .text.strcmp   0x4a0377a0       0x28 lib/built-in.o
                0x4a0377a0                strcmp
 .text.strncmp  0x4a0377c8       0x44 lib/built-in.o
                0x4a0377c8                strncmp
 .text.strchr   0x4a03780c       0x34 lib/built-in.o
                0x4a03780c                strchr
 .text.strlen   0x4a037840       0x20 lib/built-in.o
                0x4a037840                strlen
 .text.strrchr  0x4a037860       0x3c lib/built-in.o
                0x4a037860                strrchr
 .text.strnlen  0x4a03789c       0x2c lib/built-in.o
                0x4a03789c                strnlen
 .text.strdup   0x4a0378c8       0x34 lib/built-in.o
                0x4a0378c8                strdup
 .text.memset   0x4a0378fc       0x70 lib/built-in.o
                0x4a0378fc                memset
 .text.memcpy   0x4a03796c       0x6c lib/built-in.o
                0x4a03796c                memcpy
 .text.strlcpy  0x4a0379d8       0x50 lib/built-in.o
                0x4a0379d8                strlcpy
 .text.memmove  0x4a037a28       0x6c lib/built-in.o
                0x4a037a28                memmove
 .text.memcmp   0x4a037a94       0x34 lib/built-in.o
                0x4a037a94                memcmp
 .text.strstr   0x4a037ac8       0x60 lib/built-in.o
                0x4a037ac8                strstr
 .text.memchr   0x4a037b28       0x30 lib/built-in.o
                0x4a037b28                memchr
 .text.tick_to_time
                0x4a037b58       0x60 lib/built-in.o
 .text.timer_get_us
                0x4a037bb8       0x24 lib/built-in.o
                0x4a037bb8                timer_get_us
 .text.udelay   0x4a037bdc       0x30 lib/built-in.o
                0x4a037bdc                udelay
 .text.mdelay   0x4a037c0c       0x24 lib/built-in.o
                0x4a037c0c                mdelay
 .text.uuid_str_valid
                0x4a037c30       0x98 lib/built-in.o
                0x4a037c30                uuid_str_valid
 .text.uuid_str_to_bin
                0x4a037cc8      0x1a0 lib/built-in.o
                0x4a037cc8                uuid_str_to_bin
 .text.uuid_bin_to_str
                0x4a037e68       0xa4 lib/built-in.o
                0x4a037e68                uuid_bin_to_str
 .text.put_dec_trunc
                0x4a037f0c       0xd0 lib/built-in.o
 .text.string   0x4a037fdc       0xb4 lib/built-in.o
 .text.put_dec  0x4a038090      0x140 lib/built-in.o
 .text.number   0x4a0381d0      0x2bc lib/built-in.o
 .text.vsnprintf_internal
                0x4a03848c      0x6f0 lib/built-in.o
 .text.vscnprintf
                0x4a038b7c       0x24 lib/built-in.o
                0x4a038b7c                vscnprintf
 .text.snprintf
                0x4a038ba0       0x24 lib/built-in.o
                0x4a038ba0                snprintf
 .text.vsprintf
                0x4a038bc4       0x14 lib/built-in.o
                0x4a038bc4                vsprintf
 .text.sprintf  0x4a038bd8       0x24 lib/built-in.o
                0x4a038bd8                sprintf
 .text.printf   0x4a038bfc       0x50 lib/built-in.o
                0x4a038bfc                printf
 .text.vprintf  0x4a038c4c       0x34 lib/built-in.o
                0x4a038c4c                vprintf
 .text.simple_itoa
                0x4a038c80       0x58 lib/built-in.o
                0x4a038c80                simple_itoa
 .text.panic_finish
                0x4a038cd8       0x30 lib/built-in.o
 .text.panic_str
                0x4a038d08        0xc lib/built-in.o
                0x4a038d08                panic_str
 .text.panic    0x4a038d14       0x1c lib/built-in.o
                0x4a038d14                panic
 .text.simple_strtoul
                0x4a038d30       0xac lib/built-in.o
                0x4a038d30                simple_strtoul
 .text.strict_strtoul
                0x4a038ddc       0x78 lib/built-in.o
                0x4a038ddc                strict_strtoul
 .text.simple_strtol
                0x4a038e54       0x28 lib/built-in.o
                0x4a038e54                simple_strtol
 .text.ustrtoul
                0x4a038e7c       0x74 lib/built-in.o
                0x4a038e7c                ustrtoul
 .text.simple_strtoull
                0x4a038ef0       0xf0 lib/built-in.o
                0x4a038ef0                simple_strtoull
 .text.ustrtoull
                0x4a038fe0       0x8c lib/built-in.o
                0x4a038fe0                ustrtoull
 .text.trailing_strtoln
                0x4a03906c       0x60 lib/built-in.o
                0x4a03906c                trailing_strtoln
 .text.trailing_strtol
                0x4a0390cc        0x8 lib/built-in.o
                0x4a0390cc                trailing_strtol
 .text.compute_ip_checksum
                0x4a0390d4       0x68 net/built-in.o
                0x4a0390d4                compute_ip_checksum
 .text.ip_checksum_ok
                0x4a03913c       0x1c net/built-in.o
                0x4a03913c                ip_checksum_ok
 .text.arp_init
                0x4a039158       0x50 net/built-in.o
                0x4a039158                arp_init
 .text.arp_raw_request
                0x4a0391a8       0xcc net/built-in.o
                0x4a0391a8                arp_raw_request
 .text.arp_request
                0x4a039274       0x7c net/built-in.o
                0x4a039274                arp_request
 .text.arp_timeout_check
                0x4a0392f0       0x98 net/built-in.o
                0x4a0392f0                arp_timeout_check
 .text.arp_receive
                0x4a039388      0x220 net/built-in.o
                0x4a039388                arp_receive
 .text.dhcp_process_options
                0x4a0395a8      0x1f4 net/built-in.o
 .text.dhcp_extended
                0x4a03979c      0x254 net/built-in.o
 .text.dhcp_packet_process_options
                0x4a0399f0       0x80 net/built-in.o
 .text.dhcp_handler
                0x4a039a70      0x3e0 net/built-in.o
 .text.bootp_reset
                0x4a039e50       0x44 net/built-in.o
                0x4a039e50                bootp_reset
 .text.bootp_request
                0x4a039e94      0x27c net/built-in.o
                0x4a039e94                bootp_request
 .text.bootp_timeout_handler
                0x4a03a110       0x74 net/built-in.o
 .text.dhcp_request
                0x4a03a184        0x4 net/built-in.o
                0x4a03a184                dhcp_request
 .text.eth_pre_remove
                0x4a03a188       0x30 net/built-in.o
 .text.eth_post_probe
                0x4a03a1b8      0x1ac net/built-in.o
 .text.eth_get_uclass_priv
                0x4a03a364       0x1c net/built-in.o
 .text.on_ethaddr
                0x4a03a380       0x78 net/built-in.o
 .text.eth_post_bind
                0x4a03a3f8       0x34 net/built-in.o
 .text.eth_set_current_to_next
                0x4a03a42c       0x38 net/built-in.o
                0x4a03a42c                eth_set_current_to_next
 .text.eth_get_dev
                0x4a03a464       0x38 net/built-in.o
                0x4a03a464                eth_get_dev
 .text.eth_set_dev
                0x4a03a49c       0x3c net/built-in.o
                0x4a03a49c                eth_set_dev
 .text.eth_pre_unbind
                0x4a03a4d8       0x28 net/built-in.o
 .text.eth_get_dev_by_name
                0x4a03a500       0xe8 net/built-in.o
                0x4a03a500                eth_get_dev_by_name
 .text.eth_get_ethaddr
                0x4a03a5e8       0x20 net/built-in.o
                0x4a03a5e8                eth_get_ethaddr
 .text.eth_halt_state_only
                0x4a03a608       0x28 net/built-in.o
                0x4a03a608                eth_halt_state_only
 .text.eth_get_dev_index
                0x4a03a630       0x24 net/built-in.o
                0x4a03a630                eth_get_dev_index
 .text.eth_init
                0x4a03a654       0xf4 net/built-in.o
                0x4a03a654                eth_init
 .text.eth_halt
                0x4a03a748       0x3c net/built-in.o
                0x4a03a748                eth_halt
 .text.eth_send
                0x4a03a784       0x4c net/built-in.o
                0x4a03a784                eth_send
 .text.eth_rx   0x4a03a7d0       0xb4 net/built-in.o
                0x4a03a7d0                eth_rx
 .text.eth_initialize
                0x4a03a884      0x1b0 net/built-in.o
                0x4a03a884                eth_initialize
 .text.eth_parse_enetaddr
                0x4a03aa34       0x54 net/built-in.o
                0x4a03aa34                eth_parse_enetaddr
 .text.eth_getenv_enetaddr
                0x4a03aa88       0x5c net/built-in.o
                0x4a03aa88                eth_getenv_enetaddr
 .text.eth_setenv_enetaddr
                0x4a03aae4       0x34 net/built-in.o
                0x4a03aae4                eth_setenv_enetaddr
 .text.eth_getenv_enetaddr_by_index
                0x4a03ab18       0x50 net/built-in.o
                0x4a03ab18                eth_getenv_enetaddr_by_index
 .text.eth_setenv_enetaddr_by_index
                0x4a03ab68       0x50 net/built-in.o
                0x4a03ab68                eth_setenv_enetaddr_by_index
 .text.eth_common_init
                0x4a03abb8       0x18 net/built-in.o
                0x4a03abb8                eth_common_init
 .text.eth_mac_skip
                0x4a03abd0       0x40 net/built-in.o
                0x4a03abd0                eth_mac_skip
 .text.eth_get_name
                0x4a03ac10       0x28 net/built-in.o
                0x4a03ac10                eth_get_name
 .text.eth_current_changed
                0x4a03ac38       0x88 net/built-in.o
                0x4a03ac38                eth_current_changed
 .text.eth_set_current
                0x4a03acc0       0x90 net/built-in.o
                0x4a03acc0                eth_set_current
 .text.eth_try_another
                0x4a03ad50       0x7c net/built-in.o
                0x4a03ad50                eth_try_another
 .text.start_again_timeout_handler
                0x4a03adcc       0x14 net/built-in.o
 .text.dummy_handler
                0x4a03ade0        0x4 net/built-in.o
 .text.on_serverip
                0x4a03ade4       0x28 net/built-in.o
 .text.on_netmask
                0x4a03ae0c       0x28 net/built-in.o
 .text.on_gatewayip
                0x4a03ae34       0x28 net/built-in.o
 .text.on_ipaddr
                0x4a03ae5c       0x28 net/built-in.o
 .text.net_init_loop
                0x4a03ae84       0x2c net/built-in.o
 .text.net_auto_load
                0x4a03aeb0       0x64 net/built-in.o
                0x4a03aeb0                net_auto_load
 .text.net_set_udp_handler
                0x4a03af14       0x20 net/built-in.o
                0x4a03af14                net_set_udp_handler
 .text.net_get_arp_handler
                0x4a03af34       0x10 net/built-in.o
                0x4a03af34                net_get_arp_handler
 .text.net_set_arp_handler
                0x4a03af44       0x20 net/built-in.o
                0x4a03af44                net_set_arp_handler
 .text.net_set_timeout_handler
                0x4a03af64       0x4c net/built-in.o
                0x4a03af64                net_set_timeout_handler
 .text.net_start_again
                0x4a03afb0      0x140 net/built-in.o
                0x4a03afb0                net_start_again
 .text.net_clear_handlers
                0x4a03b0f0       0x24 net/built-in.o
 .text.net_init
                0x4a03b114       0x70 net/built-in.o
                0x4a03b114                net_init
 .text.net_loop
                0x4a03b184      0x378 net/built-in.o
                0x4a03b184                net_loop
 .text.net_process_received_packet
                0x4a03b4fc      0x2c4 net/built-in.o
                0x4a03b4fc                net_process_received_packet
 .text.net_eth_hdr_size
                0x4a03b7c0       0x3c net/built-in.o
                0x4a03b7c0                net_eth_hdr_size
 .text.net_set_ether
                0x4a03b7fc       0xa4 net/built-in.o
                0x4a03b7fc                net_set_ether
 .text.net_update_ether
                0x4a03b8a0       0x7c net/built-in.o
                0x4a03b8a0                net_update_ether
 .text.net_set_ip_header
                0x4a03b91c       0x88 net/built-in.o
                0x4a03b91c                net_set_ip_header
 .text.net_set_udp_header
                0x4a03b9a4       0xa4 net/built-in.o
                0x4a03b9a4                net_set_udp_header
 .text.net_send_udp_packet
                0x4a03ba48      0x108 net/built-in.o
                0x4a03ba48                net_send_udp_packet
 .text.copy_filename
                0x4a03bb50       0x44 net/built-in.o
                0x4a03bb50                copy_filename
 .text.on_bootfile
                0x4a03bb94       0x34 net/built-in.o
 .text.ip_to_string
                0x4a03bbc8       0x34 net/built-in.o
                0x4a03bbc8                ip_to_string
 .text.string_to_vlan
                0x4a03bbfc       0x48 net/built-in.o
                0x4a03bbfc                string_to_vlan
 .text.on_vlan  0x4a03bc44       0x28 net/built-in.o
 .text.on_nvlan
                0x4a03bc6c       0x28 net/built-in.o
 .text.basename
                0x4a03bc94       0x40 net/built-in.o
 .text.nfs3_get_attributes_offset
                0x4a03bcd4       0x18 net/built-in.o
 .text.rpc_lookup_reply
                0x4a03bcec       0xc8 net/built-in.o
 .text.nfs_mount_reply
                0x4a03bdb4       0xc0 net/built-in.o
 .text.nfs_umountall_reply
                0x4a03be74       0xb0 net/built-in.o
 .text.rpc_req  0x4a03bf24      0x130 net/built-in.o
 .text.rpc_lookup_req
                0x4a03c054       0x58 net/built-in.o
 .text.nfs_mount_req
                0x4a03c0ac       0xd4 net/built-in.o
 .text.nfs_umountall_req
                0x4a03c180       0x94 net/built-in.o
 .text.nfs_lookup_req
                0x4a03c214      0x17c net/built-in.o
 .text.nfs_read_req
                0x4a03c390      0x10c net/built-in.o
 .text.nfs_readlink_req
                0x4a03c49c       0xdc net/built-in.o
 .text.nfs_send
                0x4a03c578       0xc8 net/built-in.o
 .text.nfs_lookup_reply
                0x4a03c640      0x150 net/built-in.o
 .text.nfs_readlink_reply
                0x4a03c790      0x144 net/built-in.o
 .text.nfs_read_reply.isra.2
                0x4a03c8d4      0x18c net/built-in.o
 .text.nfs_handler
                0x4a03ca60      0x27c net/built-in.o
 .text.nfs_timeout_handler
                0x4a03ccdc       0x64 net/built-in.o
 .text.nfs_start
                0x4a03cd40      0x178 net/built-in.o
                0x4a03cd40                nfs_start
 .text.ping_timeout_handler
                0x4a03ceb8       0x1c net/built-in.o
 .text.ping_start
                0x4a03ced4      0x11c net/built-in.o
                0x4a03ced4                ping_start
 .text.ping_receive
                0x4a03cff0       0xe0 net/built-in.o
                0x4a03cff0                ping_receive
 .text.tftp_send
                0x4a03d0d0      0x1c0 net/built-in.o
 .text.tftp_timeout_handler
                0x4a03d290       0x88 net/built-in.o
 .text.tftp_handler
                0x4a03d318      0x3bc net/built-in.o
 .text.tftp_start
                0x4a03d6d4      0x3a4 net/built-in.o
                0x4a03d6d4                tftp_start
 .text.do_dm_dump_devres
                0x4a03da78        0x8 test/dm/built-in.o
 .text.do_dm    0x4a03da80       0x6c test/dm/built-in.o
 .text.do_dm_dump_uclass
                0x4a03daec       0x10 test/dm/built-in.o
 .text.do_dm_dump_all
                0x4a03dafc       0x10 test/dm/built-in.o
 .text.__ashldi3
                0x4a03db0c       0x1c arch/arm/lib/lib.a(ashldi3.o)
                0x4a03db0c                __ashldi3
                0x4a03db0c                __aeabi_llsl
 .text.__udivsi3
                0x4a03db28       0x9c arch/arm/lib/lib.a(lib1funcs.o)
                0x4a03db28                __udivsi3
                0x4a03db28                __aeabi_uidiv
 .text.__divsi3
                0x4a03dbc4       0xcc arch/arm/lib/lib.a(lib1funcs.o)
                0x4a03dbc4                __aeabi_idiv
                0x4a03dbc4                __divsi3
 .text.__aeabi_uidivmod
                0x4a03dc90       0x30 arch/arm/lib/lib.a(lib1funcs.o)
                0x4a03dc90                __aeabi_uidivmod
                0x4a03dca8                __aeabi_idivmod
 .text.Ldiv0    0x4a03dcc0       0x10 arch/arm/lib/lib.a(lib1funcs.o)
 .text.__lshldi3
                0x4a03dcd0       0x1c arch/arm/lib/lib.a(lshrdi3.o)
                0x4a03dcd0                __aeabi_llsr
                0x4a03dcd0                __lshrdi3
 .text.__div0   0x4a03dcec        0x4 arch/arm/lib/lib.a(div0.o)
                0x4a03dcec                __div0

.glue_7         0x4a03dcf0        0x0
 .glue_7        0x00000000        0x0 linker stubs

.glue_7t        0x4a03dcf0        0x0
 .glue_7t       0x00000000        0x0 linker stubs

.vfp11_veneer   0x4a03dcf0        0x0
 .vfp11_veneer  0x00000000        0x0 linker stubs

.v4_bx          0x4a03dcf0        0x0
 .v4_bx         0x00000000        0x0 linker stubs

.iplt           0x4a03dcf0        0x0
 .iplt          0x00000000        0x0 arch/arm/cpu/armv7/start.o

.__secure_start
                0x4a03e000        0x0
 *(.__secure_start)
 .__secure_start
                0x4a03e000        0x0 arch/arm/lib/built-in.o
                0x4a03e000                __secure_start

.secure_text    0x4a03e000      0x6b0
 *(._secure.text)
 ._secure.text  0x4a03e000      0x6b0 arch/arm/cpu/armv7/built-in.o
                0x4a03e098                _do_nonsec_entry
                0x4a03e0ac                _nonsec_init
                0x4a03e140                _psci_vectors
                0x4a03e164                default_psci_vector
                0x4a03e168                psci_migrate_info_up_cpu
                0x4a03e168                psci_cpu_suspend
                0x4a03e168                psci_version
                0x4a03e168                psci_affinity_info
                0x4a03e168                psci_migrate
                0x4a03e168                psci_system_reset
                0x4a03e168                psci_system_suspend
                0x4a03e168                psci_system_off
                0x4a03e168                psi_stat_residency
                0x4a03e168                psci_features
                0x4a03e168                psci_cpu_default_suspend
                0x4a03e168                psci_stat_count
                0x4a03e168                psci_node_hw_state
                0x4a03e168                psci_set_suspend_mode
                0x4a03e168                psci_migrate_info_type
                0x4a03e168                psci_cpu_freeze
                0x4a03e270                psci_get_cpu_id
                0x4a03e320                psci_disable_smp
                0x4a03e338                psci_enable_smp
                0x4a03e34c                psci_cpu_off_common
                0x4a03e388                psci_stack_setup
                0x4a03e3a8                psci_cpu_entry
                0x4a03e3e0                psci_save_target_pc
                0x4a03e3f4                psci_get_target_pc
                0x4a03e4bc                sunxi_cpu_power_off
                0x4a03e544                psci_fiq_enter
                0x4a03e59c                psci_cpu_on
                0x4a03e630                psci_cpu_off
                0x4a03e65c                psci_arch_init

.secure_data    0x4a03e6b0       0x10
 *(._secure.data)
 ._secure.data  0x4a03e6b0       0x10 arch/arm/cpu/armv7/built-in.o

.secure_stack   0x4a03f000     0x1000
 *(.__secure_stack_start)
 .__secure_stack_start
                0x4a03f000        0x0 arch/arm/lib/built-in.o
                0x4a03f000                __secure_stack_start
                0x4a040000                . = (. + 0x1000)
 *fill*         0x4a03f000     0x1000 00
                0x4a040000                . = ALIGN (0x1000)
 *(.__secure_stack_end)
 .__secure_stack_end
                0x4a040000        0x0 arch/arm/lib/built-in.o
                0x4a040000                __secure_stack_end

.__secure_end   0x4a040000        0x4
 *(.__secure_end)
 .__secure_end  0x4a040000        0x0 arch/arm/lib/built-in.o
                0x4a040000                __secure_end
                0x4a040000        0x4 LONG 0x1d1071c
                0x4a040004                . = ALIGN (0x4)

.rodata         0x4a040008    0x10949
 *(SORT(.rodata*))
 .rodata.efi_boot_services
                0x4a040008       0xc8 lib/built-in.o
 .rodata        0x4a0400d0       0x80 arch/arm/lib/built-in.o
 .rodata.CSWTCH.13
                0x4a040150       0x20 common/built-in.o
 .rodata.CSWTCH.26
                0x4a040170       0x14 cmd/built-in.o
 .rodata.baudrate_table
                0x4a040184       0x14 drivers/serial/built-in.o
 .rodata.boot_os
                0x4a040198       0x60 common/built-in.o
 .rodata.cc_to_error
                0x4a0401f8       0x40 drivers/usb/host/built-in.o
 .rodata.cc_to_string
                0x4a040238       0x40 drivers/usb/host/built-in.o
 .rodata.crc_table
                0x4a040278      0x400 lib/built-in.o
 .rodata.desc_and_len_tbl
                0x4a040678       0x30 cmd/built-in.o
 .rodata.efi_con_in
                0x4a0406a8        0xc lib/built-in.o
                0x4a0406a8                efi_con_in
 .rodata.efi_con_out
                0x4a0406b4       0x28 lib/built-in.o
                0x4a0406b4                efi_con_out
 .rodata.efi_console_control
                0x4a0406dc        0xc lib/built-in.o
                0x4a0406dc                efi_console_control
 .rodata.efi_runtime_detach_list
                0x4a0406e8       0x38 lib/built-in.o
 .rodata.ehci_usb_ids
                0x4a040720       0x48 drivers/usb/host/built-in.o
 .rodata.env_flags_varaccess_mask
                0x4a040768       0x10 common/built-in.o
 .rodata.ext_csd_bits.6373
                0x4a040778       0x14 drivers/mmc/built-in.o
 .rodata.ext_to_hostcaps.6374
                0x4a04078c       0x1c drivers/mmc/built-in.o
 .rodata.fbase  0x4a0407a8       0x10 drivers/mmc/built-in.o
 .rodata.fdt_errtable
                0x4a0407b8       0x34 lib/built-in.o
 .rodata.generic_simple_bus_ids
                0x4a0407ec       0x18 drivers/built-in.o
 .rodata.gpio_function
                0x4a040804       0x14 drivers/gpio/built-in.o
 .rodata.gpio_sunxi_ops
                0x4a040818       0x28 drivers/gpio/built-in.o
 .rodata.hub_id_table
                0x4a040840       0x30 common/built-in.o
 .rodata.keywords
                0x4a040870       0x98 cmd/built-in.o
 .rodata.mass_storage_id_table
                0x4a040908       0x30 common/built-in.o
 .rodata.ns16550_serial_ids
                0x4a040938       0x58 drivers/serial/built-in.o
 .rodata.ns16550_serial_ops
                0x4a040990       0x14 drivers/serial/built-in.o
                0x4a040990                ns16550_serial_ops
 .rodata.ohci_usb_ids
                0x4a0409a4       0x48 drivers/usb/host/built-in.o
 .rodata.op_adv
                0x4a0409ec      0x100 cmd/built-in.o
                0x4a0409ec                op_adv
 .rodata.op_table
                0x4a040aec       0x68 cmd/built-in.o
 .rodata.phy_interface_strings
                0x4a040b54       0x38 drivers/net/phy/built-in.o
 .rodata.reg_0_5_desc_tbl
                0x4a040b8c       0x30 cmd/built-in.o
 .rodata.reg_0_desc_tbl
                0x4a040bbc       0x78 cmd/built-in.o
 .rodata.reg_1_desc_tbl
                0x4a040c34       0xc0 cmd/built-in.o
 .rodata.reg_2_desc_tbl
                0x4a040cf4        0xc cmd/built-in.o
 .rodata.reg_3_desc_tbl
                0x4a040d00       0x24 cmd/built-in.o
 .rodata.reg_4_desc_tbl
                0x4a040d24       0x90 cmd/built-in.o
 .rodata.reg_5_desc_tbl
                0x4a040db4       0x90 cmd/built-in.o
 .rodata.root_info
                0x4a040e44        0x8 drivers/built-in.o
 .rodata.soc_data_a_all
                0x4a040e4c        0x8 drivers/gpio/built-in.o
 .rodata.soc_data_l_1
                0x4a040e54        0x8 drivers/gpio/built-in.o
 .rodata.soc_data_l_2
                0x4a040e5c        0x8 drivers/gpio/built-in.o
 .rodata.soc_data_l_3
                0x4a040e64        0x8 drivers/gpio/built-in.o
 .rodata.sun8i_emac_eth_ids
                0x4a040e6c       0x20 drivers/net/built-in.o
 .rodata.sun8i_emac_eth_ops
                0x4a040e8c       0x1c drivers/net/built-in.o
 .rodata.sunxi_gpio_ids
                0x4a040ea8       0x88 drivers/gpio/built-in.o
 .rodata.sunxi_mmc_ops
                0x4a040f30       0x14 drivers/mmc/built-in.o
 .rodata.uimage_arch
                0x4a040f44      0x138 common/built-in.o
 .rodata.uimage_comp
                0x4a04107c       0x54 common/built-in.o
 .rodata.uimage_os
                0x4a0410d0       0x78 common/built-in.o
 .rodata.uimage_type
                0x4a041148      0x15c common/built-in.o
 .rodata.usb_hub_ids
                0x4a0412a4       0x10 common/built-in.o
 .rodata.usb_mass_storage_ids
                0x4a0412b4       0x10 common/built-in.o
 .rodata.widths.6375
                0x4a0412c4       0x14 drivers/mmc/built-in.o
 .rodata.crc16_tab
                0x4a0412d8      0x200 lib/built-in.o
 .rodata.dbase.4494
                0x4a0414d8       0x40 lib/built-in.o
 .rodata.dext.4495
                0x4a041518       0x40 lib/built-in.o
 .rodata.distfix
                0x4a041558       0x80 lib/built-in.o
 .rodata.lbase.4492
                0x4a0415d8       0x3e lib/built-in.o
 .rodata.lenfix
                0x4a041616      0x800 lib/built-in.o
 .rodata.lext.4493
                0x4a041e16       0x3e lib/built-in.o
 .rodata.order.4588
                0x4a041e54       0x26 lib/built-in.o
 .rodata        0x4a041e7a       0x18 cmd/built-in.o
 .rodata        0x4a041e92      0xf41 common/built-in.o
 .rodata        0x4a042dd3       0x3f drivers/usb/host/built-in.o
 .rodata        0x4a042e12       0x20 lib/built-in.o
 .rodata        0x4a042e32        0x7 net/built-in.o
 .rodata.CSWTCH.38
                0x4a042e39       0x16 common/built-in.o
 .rodata.CSWTCH.40
                0x4a042e4f        0x2 common/built-in.o
 .rodata.__FUNCTION__.5873
                0x4a042e51       0x17 common/built-in.o
 .rodata.__FUNCTION__.6018
                0x4a042e68       0x17 common/built-in.o
 .rodata.__func__.4311
                0x4a042e7f        0xf disk/built-in.o
 .rodata.__func__.4323
                0x4a042e8e       0x12 disk/built-in.o
 .rodata.__func__.4395
                0x4a042ea0        0xf fs/built-in.o
 .rodata.__func__.4462
                0x4a042eaf        0xd disk/built-in.o
 .rodata.__func__.4471
                0x4a042ebc       0x17 disk/built-in.o
 .rodata.__func__.4476
                0x4a042ed3        0xd disk/built-in.o
 .rodata.__func__.4547
                0x4a042ee0       0x10 common/built-in.o
 .rodata.__func__.4563
                0x4a042ef0        0xb common/built-in.o
 .rodata.__func__.4570
                0x4a042efb        0xb common/built-in.o
 .rodata.__func__.4920
                0x4a042f06        0xe cmd/built-in.o
 .rodata.__func__.4921
                0x4a042f14        0xc lib/built-in.o
 .rodata.__func__.4957
                0x4a042f20        0xe cmd/built-in.o
 .rodata.__func__.5059
                0x4a042f2e        0xe common/built-in.o
 .rodata.__func__.5750
                0x4a042f3c       0x18 common/built-in.o
 .rodata.__func__.5939
                0x4a042f54        0xe drivers/built-in.o
 .rodata.__func__.6419
                0x4a042f62        0xd drivers/built-in.o
 .rodata.__func__.6425
                0x4a042f6f       0x11 drivers/built-in.o
 .rodata.__func__.6429
                0x4a042f80       0x18 drivers/built-in.o
 .rodata.__func__.6433
                0x4a042f98       0x18 drivers/built-in.o
 .rodata.__func__.6437
                0x4a042fb0        0xd drivers/built-in.o
 .rodata.__func__.6441
                0x4a042fbd       0x14 drivers/built-in.o
 .rodata.__func__.6445
                0x4a042fd1       0x14 drivers/built-in.o
 .rodata.__func__.6992
                0x4a042fe5       0x15 drivers/net/built-in.o
 .rodata.__func__.7062
                0x4a042ffa       0x17 drivers/usb/host/built-in.o
 .rodata.__func__.7124
                0x4a043011       0x22 drivers/net/built-in.o
 .rodata._ctype
                0x4a043033      0x100 lib/built-in.o
                0x4a043033                _ctype
 .rodata.default_environment
                0x4a043133      0xf3e common/built-in.o
                0x4a043133                default_environment
 .rodata.digits.4149
                0x4a044071       0x10 lib/built-in.o
 .rodata.efi_block_io_guid
                0x4a044081       0x10 lib/built-in.o
 .rodata.efi_guid_console_control
                0x4a044091       0x10 lib/built-in.o
                0x4a044091                efi_guid_console_control
 .rodata.efi_guid_device_path
                0x4a0440a1       0x10 lib/built-in.o
                0x4a0440a1                efi_guid_device_path
 .rodata.efi_guid_loaded_image
                0x4a0440b1       0x10 lib/built-in.o
                0x4a0440b1                efi_guid_loaded_image
 .rodata.efi_net_guid
                0x4a0440c1       0x10 lib/built-in.o
 .rodata.efi_pxe_guid
                0x4a0440d1       0x10 lib/built-in.o
 .rodata.env_flags_varaccess_rep
                0x4a0440e1        0x5 common/built-in.o
 .rodata.env_flags_vartype_rep
                0x4a0440e6        0x7 common/built-in.o
 .rodata.erase_seq
                0x4a0440ed        0x4 common/built-in.o
 .rodata.multipliers
                0x4a0440f1       0x10 drivers/mmc/built-in.o
 .rodata.names.4296
                0x4a044101        0x6 lib/built-in.o
 .rodata.net_bcast_ethaddr
                0x4a044107        0x6 net/built-in.o
                0x4a044107                net_bcast_ethaddr
 .rodata.str1.1
                0x4a04410d       0x5c arch/arm/cpu/armv7/built-in.o
 .rodata.str1.1
                0x4a044169      0x3fe arch/arm/lib/built-in.o
                                0x457 (size before relaxing)
 .rodata.str1.1
                0x4a044567       0x63 arch/arm/mach-sunxi/built-in.o
                                 0x64 (size before relaxing)
 .rodata.str1.1
                0x4a0445ca       0xc2 board/sunxi/built-in.o
                                 0xc5 (size before relaxing)
 .rodata.str1.1
                0x4a04468c     0x5afc cmd/built-in.o
                               0x60d9 (size before relaxing)
 .rodata.str1.1
                0x4a04a188     0x2441 common/built-in.o
                               0x284a (size before relaxing)
 .rodata.str1.1
                0x4a04c5c9      0xb5a disk/built-in.o
                                0xbbd (size before relaxing)
 .rodata.str1.1
                0x4a04d123      0x352 drivers/built-in.o
                                0x3bf (size before relaxing)
 .rodata.str1.1
                0x4a04d475      0x28a drivers/gpio/built-in.o
                                0x2a7 (size before relaxing)
 .rodata.str1.1
                0x4a04d6ff       0x56 drivers/i2c/built-in.o
 .rodata.str1.1
                0x4a04d755      0x38d drivers/mmc/built-in.o
                                0x3e9 (size before relaxing)
 .rodata.str1.1
                0x4a04dae2      0x17a drivers/net/built-in.o
                                0x187 (size before relaxing)
 .rodata.str1.1
                0x4a04dc5c      0x137 drivers/net/phy/built-in.o
                                0x14d (size before relaxing)
 .rodata.str1.1
                0x4a04dd93      0x11a drivers/serial/built-in.o
                                0x170 (size before relaxing)
 .rodata.str1.1
                0x4a04dead      0xd88 drivers/usb/host/built-in.o
                                0xd9e (size before relaxing)
 .rodata.str1.1
                0x4a04ec35      0x81b fs/built-in.o
                                0x87d (size before relaxing)
 .rodata.str1.1
                0x4a04f450      0xc56 lib/built-in.o
                                0xd3e (size before relaxing)
 .rodata.str1.1
                0x4a0500a6      0x754 net/built-in.o
                                0x84e (size before relaxing)
 .rodata.str1.1
                0x4a0507fa       0xdc test/dm/built-in.o
                                 0xe2 (size before relaxing)
 .rodata.tab_seq
                0x4a0508d6        0x9 common/built-in.o
 .rodata.us_direction
                0x4a0508df       0x20 common/built-in.o
 .rodata.version_string
                0x4a0508ff       0x52 cmd/built-in.o
                0x4a0508ff                version_string

.hash           0x4a050954       0x2c
 .hash          0x4a050954       0x2c arch/arm/cpu/armv7/start.o
                0x4a050980                . = ALIGN (0x4)

.data           0x4a050980     0x22ec
 *(.data*)
 .data.sunxi_usb_phy
                0x4a050980       0x80 arch/arm/mach-sunxi/built-in.o
 .data.bootm_help_text
                0x4a050a00      0x38b cmd/built-in.o
 *fill*         0x4a050d8b        0x1 00
 .data.cmd_bootm_sub
                0x4a050d8c       0xfc cmd/built-in.o
 .data.source_help_text
                0x4a050e88       0x4e cmd/built-in.o
 .data.bootefi_device_path
                0x4a050ed6       0x88 cmd/built-in.o
 *fill*         0x4a050f5e        0x2 00
 .data.loaded_image_info_obj
                0x4a050f60       0x2c cmd/built-in.o
 .data.bootefi_image_path
                0x4a050f8c       0x88 cmd/built-in.o
 .data.bootefi_help_text
                0x4a051014       0xbf cmd/built-in.o
 *fill*         0x4a0510d3        0x1 00
 .data.bootefi_device_obj
                0x4a0510d4       0x2c cmd/built-in.o
 .data.loaded_image_info
                0x4a051100       0x58 cmd/built-in.o
 .data.bootz_help_text
                0x4a051158      0x208 cmd/built-in.o
 .data.root.5072
                0x4a051360        0x2 cmd/built-in.o
 .data.tabs.5156
                0x4a051362       0x21 cmd/built-in.o
 .data.fdt_help_text
                0x4a051383      0x623 cmd/built-in.o
 .data.i2c_help_text
                0x4a0519a6      0x37c cmd/built-in.o
 *fill*         0x4a051d22        0x2 00
 .data.cmd_i2c_sub
                0x4a051d24      0x16c cmd/built-in.o
 .data.i2c_dp_last_length
                0x4a051e90        0x4 cmd/built-in.o
 .data.do_echo  0x4a051e94        0x4 cmd/built-in.o
 .data.dp_last_length
                0x4a051e98        0x4 cmd/built-in.o
 .data.curr_device
                0x4a051e9c        0x4 cmd/built-in.o
 .data.cmd_mmc  0x4a051ea0      0x118 cmd/built-in.o
 .data.cmd_pxe_sub
                0x4a051fb8       0x38 cmd/built-in.o
 .data.pxe_default_paths
                0x4a051ff0       0x10 cmd/built-in.o
                0x4a051ff0                pxe_default_paths
 .data.usb_stor_curr_dev
                0x4a052000        0x4 cmd/built-in.o
 .data.imgextract_help_text
                0x4a052004       0x55 cmd/built-in.o
 .data.env_help_text
                0x4a052059      0x24f cmd/built-in.o
 .data.env_id   0x4a0522a8        0x4 cmd/built-in.o
 .data.cmd_env_sub
                0x4a0522ac      0x118 cmd/built-in.o
 .data.reserved_list
                0x4a0523c4       0x84 common/built-in.o
 .data.init_sequence_f
                0x4a052448       0x9c common/built-in.o
 .data.init_sequence_r
                0x4a0524e4       0x70 common/built-in.o
                0x4a0524e4                init_sequence_r
 .data.first_call
                0x4a052554        0x8 common/built-in.o
 .data.env_name_spec
                0x4a05255c        0x4 common/built-in.o
                0x4a05255c                env_name_spec
 .data.of_busses
                0x4a052560       0x18 common/built-in.o
 .data.usb_scan_list
                0x4a052578        0x8 common/built-in.o
 .data.env_htab
                0x4a052580       0x10 common/built-in.o
                0x4a052580                env_htab
 .data.av_      0x4a052590      0x408 common/built-in.o
 .data.sbrk_base
                0x4a052998        0x4 common/built-in.o
 .data.trim_threshold
                0x4a05299c        0x4 common/built-in.o
 .data.load_addr
                0x4a0529a0        0x4 common/built-in.o
                0x4a0529a0                load_addr
 .data.stdio_names
                0x4a0529a4        0xc common/built-in.o
                0x4a0529a4                stdio_names
 .data.hist_cur
                0x4a0529b0        0x4 common/built-in.o
 .data.system_guid
                0x4a0529b4       0x10 disk/built-in.o
 .data.cur_dev_num
                0x4a0529c4        0x4 drivers/mmc/built-in.o
 .data.genphy_driver
                0x4a0529c8       0x34 drivers/net/phy/built-in.o
 .data.phy_drivers
                0x4a0529fc        0x8 drivers/net/phy/built-in.o
 .data.root_hub_config_des
                0x4a052a04       0x19 drivers/usb/host/built-in.o
 *fill*         0x4a052a1d        0x3 00
 .data.ohci_usb_ops
                0x4a052a20       0x20 drivers/usb/host/built-in.o
                0x4a052a20                ohci_usb_ops
 .data.root_hub_dev_des
                0x4a052a40       0x12 drivers/usb/host/built-in.o
 .data.root_hub_str_index0
                0x4a052a52        0x4 drivers/usb/host/built-in.o
 .data.root_hub_str_index1
                0x4a052a56       0x20 drivers/usb/host/built-in.o
 *fill*         0x4a052a76        0x2 00
 .data.ehci_usb_ops
                0x4a052a78       0x20 drivers/usb/host/built-in.o
                0x4a052a78                ehci_usb_ops
 .data.descriptor
                0x4a052a98       0x38 drivers/usb/host/built-in.o
 .data.fstypes  0x4a052ad0       0x84 fs/built-in.o
 .data.ext4fs_indir3_blkno
                0x4a052b54        0x4 fs/built-in.o
                0x4a052b54                ext4fs_indir3_blkno
 .data.ext4fs_indir1_blkno
                0x4a052b58        0x4 fs/built-in.o
                0x4a052b58                ext4fs_indir1_blkno
 .data.ext4fs_indir2_blkno
                0x4a052b5c        0x4 fs/built-in.o
                0x4a052b5c                ext4fs_indir2_blkno
 .data.efi_event
                0x4a052b60       0x28 lib/built-in.o
 .data.efi_class_maps
                0x4a052b88        0x8 lib/built-in.o
 .data.efi_is_direct_boot
                0x4a052b90        0x1 lib/built-in.o
 *fill*         0x4a052b91        0x3 00
 .data.loaded_image_info_obj.5046
                0x4a052b94       0x2c lib/built-in.o
 .data.efi_obj_list
                0x4a052bc0        0x8 lib/built-in.o
                0x4a052bc0                efi_obj_list
 .data.lastoff.6527
                0x4a052bc8        0x4 lib/built-in.o
 .data.console_columns
                0x4a052bcc        0x4 lib/built-in.o
 .data.console_rows
                0x4a052bd0        0x4 lib/built-in.o
 .data.efi_con_mode
                0x4a052bd4       0x18 lib/built-in.o
 .data.efi_mem  0x4a052bec        0x8 lib/built-in.o
                0x4a052bec                efi_mem
 .data.net_native_vlan
                0x4a052bf4        0x2 net/built-in.o
                0x4a052bf4                net_native_vlan
 .data.net_our_vlan
                0x4a052bf6        0x2 net/built-in.o
                0x4a052bf6                net_our_vlan
 .data.first_call.4680
                0x4a052bf8        0x4 net/built-in.o
 .data.nfs_offset
                0x4a052bfc        0x4 net/built-in.o
 .data.supported_nfs_versions
                0x4a052c00        0x1 net/built-in.o
 *fill*         0x4a052c01        0x3 00
 .data.timeout_count_max
                0x4a052c04        0x4 net/built-in.o
 .data.tftp_block_size_option
                0x4a052c08        0x2 net/built-in.o
 *fill*         0x4a052c0a        0x2 00
 .data.tftp_timeout_count_max
                0x4a052c0c        0x4 net/built-in.o
                0x4a052c0c                tftp_timeout_count_max
 .data.timeout_ms
                0x4a052c10        0x4 net/built-in.o
 .data.tftp_block_size
                0x4a052c14        0x2 net/built-in.o
 *fill*         0x4a052c16        0x2 00
 .data.test_commands
                0x4a052c18       0x54 test/dm/built-in.o

.got            0x4a052c6c        0x0
 .got           0x00000000        0x0 arch/arm/cpu/armv7/start.o

.got.plt        0x4a052c6c        0xc
 .got.plt       0x4a052c6c        0xc arch/arm/cpu/armv7/start.o
                0x4a052c6c                _GLOBAL_OFFSET_TABLE_

.igot.plt       0x4a052c78        0x0
 .igot.plt      0x00000000        0x0 arch/arm/cpu/armv7/start.o
                0x4a052c78                . = ALIGN (0x4)
                0x4a052c78                . = .
                0x4a052c78                . = ALIGN (0x4)

.u_boot_list    0x4a052c78      0xf10
 *(SORT(.u_boot_list*))
 .u_boot_list_2_blk_driver_1
                0x4a052c78        0x0 drivers/built-in.o
 .u_boot_list_2_blk_driver_2_mmc
                0x4a052c78       0x18 drivers/mmc/built-in.o
                0x4a052c78                _u_boot_list_2_blk_driver_2_mmc
 .u_boot_list_2_blk_driver_2_usb
                0x4a052c90       0x18 common/built-in.o
                0x4a052c90                _u_boot_list_2_blk_driver_2_usb
 .u_boot_list_2_blk_driver_3
                0x4a052ca8        0x0 drivers/built-in.o
 .u_boot_list_2_cmd_1
                0x4a052ca8        0x0 cmd/built-in.o
 .u_boot_list_2_cmd_1
                0x4a052ca8        0x0 common/built-in.o
 .u_boot_list_2_cmd_2_base
                0x4a052ca8       0x1c cmd/built-in.o
                0x4a052ca8                _u_boot_list_2_cmd_2_base
 .u_boot_list_2_cmd_2_bdinfo
                0x4a052cc4       0x1c cmd/built-in.o
                0x4a052cc4                _u_boot_list_2_cmd_2_bdinfo
 .u_boot_list_2_cmd_2_boot
                0x4a052ce0       0x1c cmd/built-in.o
                0x4a052ce0                _u_boot_list_2_cmd_2_boot
 .u_boot_list_2_cmd_2_bootd
                0x4a052cfc       0x1c cmd/built-in.o
                0x4a052cfc                _u_boot_list_2_cmd_2_bootd
 .u_boot_list_2_cmd_2_bootefi
                0x4a052d18       0x1c cmd/built-in.o
                0x4a052d18                _u_boot_list_2_cmd_2_bootefi
 .u_boot_list_2_cmd_2_bootelf
                0x4a052d34       0x1c cmd/built-in.o
                0x4a052d34                _u_boot_list_2_cmd_2_bootelf
 .u_boot_list_2_cmd_2_bootm
                0x4a052d50       0x1c cmd/built-in.o
                0x4a052d50                _u_boot_list_2_cmd_2_bootm
 .u_boot_list_2_cmd_2_bootp
                0x4a052d6c       0x1c cmd/built-in.o
                0x4a052d6c                _u_boot_list_2_cmd_2_bootp
 .u_boot_list_2_cmd_2_bootvx
                0x4a052d88       0x1c cmd/built-in.o
                0x4a052d88                _u_boot_list_2_cmd_2_bootvx
 .u_boot_list_2_cmd_2_bootz
                0x4a052da4       0x1c cmd/built-in.o
                0x4a052da4                _u_boot_list_2_cmd_2_bootz
 .u_boot_list_2_cmd_2_cmp
                0x4a052dc0       0x1c cmd/built-in.o
                0x4a052dc0                _u_boot_list_2_cmd_2_cmp
 .u_boot_list_2_cmd_2_coninfo
                0x4a052ddc       0x1c cmd/built-in.o
                0x4a052ddc                _u_boot_list_2_cmd_2_coninfo
 .u_boot_list_2_cmd_2_cp
                0x4a052df8       0x1c cmd/built-in.o
                0x4a052df8                _u_boot_list_2_cmd_2_cp
 .u_boot_list_2_cmd_2_crc32
                0x4a052e14       0x1c cmd/built-in.o
                0x4a052e14                _u_boot_list_2_cmd_2_crc32
 .u_boot_list_2_cmd_2_dhcp
                0x4a052e30       0x1c cmd/built-in.o
                0x4a052e30                _u_boot_list_2_cmd_2_dhcp
 .u_boot_list_2_cmd_2_dm
                0x4a052e4c       0x1c test/dm/built-in.o
                0x4a052e4c                _u_boot_list_2_cmd_2_dm
 .u_boot_list_2_cmd_2_echo
                0x4a052e68       0x1c cmd/built-in.o
                0x4a052e68                _u_boot_list_2_cmd_2_echo
 .u_boot_list_2_cmd_2_editenv
                0x4a052e84       0x1c cmd/built-in.o
                0x4a052e84                _u_boot_list_2_cmd_2_editenv
 .u_boot_list_2_cmd_2_env
                0x4a052ea0       0x1c cmd/built-in.o
                0x4a052ea0                _u_boot_list_2_cmd_2_env
 .u_boot_list_2_cmd_2_exit
                0x4a052ebc       0x1c cmd/built-in.o
                0x4a052ebc                _u_boot_list_2_cmd_2_exit
 .u_boot_list_2_cmd_2_ext2load
                0x4a052ed8       0x1c cmd/built-in.o
                0x4a052ed8                _u_boot_list_2_cmd_2_ext2load
 .u_boot_list_2_cmd_2_ext2ls
                0x4a052ef4       0x1c cmd/built-in.o
                0x4a052ef4                _u_boot_list_2_cmd_2_ext2ls
 .u_boot_list_2_cmd_2_ext4load
                0x4a052f10       0x1c cmd/built-in.o
                0x4a052f10                _u_boot_list_2_cmd_2_ext4load
 .u_boot_list_2_cmd_2_ext4ls
                0x4a052f2c       0x1c cmd/built-in.o
                0x4a052f2c                _u_boot_list_2_cmd_2_ext4ls
 .u_boot_list_2_cmd_2_ext4size
                0x4a052f48       0x1c cmd/built-in.o
                0x4a052f48                _u_boot_list_2_cmd_2_ext4size
 .u_boot_list_2_cmd_2_false
                0x4a052f64       0x1c cmd/built-in.o
                0x4a052f64                _u_boot_list_2_cmd_2_false
 .u_boot_list_2_cmd_2_fatinfo
                0x4a052f80       0x1c cmd/built-in.o
                0x4a052f80                _u_boot_list_2_cmd_2_fatinfo
 .u_boot_list_2_cmd_2_fatload
                0x4a052f9c       0x1c cmd/built-in.o
                0x4a052f9c                _u_boot_list_2_cmd_2_fatload
 .u_boot_list_2_cmd_2_fatls
                0x4a052fb8       0x1c cmd/built-in.o
                0x4a052fb8                _u_boot_list_2_cmd_2_fatls
 .u_boot_list_2_cmd_2_fatsize
                0x4a052fd4       0x1c cmd/built-in.o
                0x4a052fd4                _u_boot_list_2_cmd_2_fatsize
 .u_boot_list_2_cmd_2_fatwrite
                0x4a052ff0       0x1c cmd/built-in.o
                0x4a052ff0                _u_boot_list_2_cmd_2_fatwrite
 .u_boot_list_2_cmd_2_fdt
                0x4a05300c       0x1c cmd/built-in.o
                0x4a05300c                _u_boot_list_2_cmd_2_fdt
 .u_boot_list_2_cmd_2_fstype
                0x4a053028       0x1c cmd/built-in.o
                0x4a053028                _u_boot_list_2_cmd_2_fstype
 .u_boot_list_2_cmd_2_go
                0x4a053044       0x1c cmd/built-in.o
                0x4a053044                _u_boot_list_2_cmd_2_go
 .u_boot_list_2_cmd_2_gpio
                0x4a053060       0x1c cmd/built-in.o
                0x4a053060                _u_boot_list_2_cmd_2_gpio
 .u_boot_list_2_cmd_2_help
                0x4a05307c       0x1c cmd/built-in.o
                0x4a05307c                _u_boot_list_2_cmd_2_help
 .u_boot_list_2_cmd_2_i2c
                0x4a053098       0x1c cmd/built-in.o
                0x4a053098                _u_boot_list_2_cmd_2_i2c
 .u_boot_list_2_cmd_2_iminfo
                0x4a0530b4       0x1c cmd/built-in.o
                0x4a0530b4                _u_boot_list_2_cmd_2_iminfo
 .u_boot_list_2_cmd_2_imxtract
                0x4a0530d0       0x1c cmd/built-in.o
                0x4a0530d0                _u_boot_list_2_cmd_2_imxtract
 .u_boot_list_2_cmd_2_itest
                0x4a0530ec       0x1c cmd/built-in.o
                0x4a0530ec                _u_boot_list_2_cmd_2_itest
 .u_boot_list_2_cmd_2_load
                0x4a053108       0x1c cmd/built-in.o
                0x4a053108                _u_boot_list_2_cmd_2_load
 .u_boot_list_2_cmd_2_loadb
                0x4a053124       0x1c cmd/built-in.o
                0x4a053124                _u_boot_list_2_cmd_2_loadb
 .u_boot_list_2_cmd_2_loads
                0x4a053140       0x1c cmd/built-in.o
                0x4a053140                _u_boot_list_2_cmd_2_loads
 .u_boot_list_2_cmd_2_loadx
                0x4a05315c       0x1c cmd/built-in.o
                0x4a05315c                _u_boot_list_2_cmd_2_loadx
 .u_boot_list_2_cmd_2_loady
                0x4a053178       0x1c cmd/built-in.o
                0x4a053178                _u_boot_list_2_cmd_2_loady
 .u_boot_list_2_cmd_2_loop
                0x4a053194       0x1c cmd/built-in.o
                0x4a053194                _u_boot_list_2_cmd_2_loop
 .u_boot_list_2_cmd_2_ls
                0x4a0531b0       0x1c cmd/built-in.o
                0x4a0531b0                _u_boot_list_2_cmd_2_ls
 .u_boot_list_2_cmd_2_md
                0x4a0531cc       0x1c cmd/built-in.o
                0x4a0531cc                _u_boot_list_2_cmd_2_md
 .u_boot_list_2_cmd_2_mdio
                0x4a0531e8       0x1c cmd/built-in.o
                0x4a0531e8                _u_boot_list_2_cmd_2_mdio
 .u_boot_list_2_cmd_2_mii
                0x4a053204       0x1c cmd/built-in.o
                0x4a053204                _u_boot_list_2_cmd_2_mii
 .u_boot_list_2_cmd_2_mm
                0x4a053220       0x1c cmd/built-in.o
                0x4a053220                _u_boot_list_2_cmd_2_mm
 .u_boot_list_2_cmd_2_mmc
                0x4a05323c       0x1c cmd/built-in.o
                0x4a05323c                _u_boot_list_2_cmd_2_mmc
 .u_boot_list_2_cmd_2_mmcinfo
                0x4a053258       0x1c cmd/built-in.o
                0x4a053258                _u_boot_list_2_cmd_2_mmcinfo
 .u_boot_list_2_cmd_2_mw
                0x4a053274       0x1c cmd/built-in.o
                0x4a053274                _u_boot_list_2_cmd_2_mw
 .u_boot_list_2_cmd_2_nfs
                0x4a053290       0x1c cmd/built-in.o
                0x4a053290                _u_boot_list_2_cmd_2_nfs
 .u_boot_list_2_cmd_2_nm
                0x4a0532ac       0x1c cmd/built-in.o
                0x4a0532ac                _u_boot_list_2_cmd_2_nm
 .u_boot_list_2_cmd_2_part
                0x4a0532c8       0x1c cmd/built-in.o
                0x4a0532c8                _u_boot_list_2_cmd_2_part
 .u_boot_list_2_cmd_2_ping
                0x4a0532e4       0x1c cmd/built-in.o
                0x4a0532e4                _u_boot_list_2_cmd_2_ping
 .u_boot_list_2_cmd_2_printenv
                0x4a053300       0x1c cmd/built-in.o
                0x4a053300                _u_boot_list_2_cmd_2_printenv
 .u_boot_list_2_cmd_2_pxe
                0x4a05331c       0x1c cmd/built-in.o
                0x4a05331c                _u_boot_list_2_cmd_2_pxe
 .u_boot_list_2_cmd_2_question_mark
                0x4a053338       0x1c cmd/built-in.o
                0x4a053338                _u_boot_list_2_cmd_2_question_mark
 .u_boot_list_2_cmd_2_reset
                0x4a053354       0x1c cmd/built-in.o
                0x4a053354                _u_boot_list_2_cmd_2_reset
 .u_boot_list_2_cmd_2_run
                0x4a053370       0x1c cmd/built-in.o
                0x4a053370                _u_boot_list_2_cmd_2_run
 .u_boot_list_2_cmd_2_save
                0x4a05338c       0x1c cmd/built-in.o
                0x4a05338c                _u_boot_list_2_cmd_2_save
 .u_boot_list_2_cmd_2_saveenv
                0x4a0533a8       0x1c cmd/built-in.o
                0x4a0533a8                _u_boot_list_2_cmd_2_saveenv
 .u_boot_list_2_cmd_2_setenv
                0x4a0533c4       0x1c cmd/built-in.o
                0x4a0533c4                _u_boot_list_2_cmd_2_setenv
 .u_boot_list_2_cmd_2_setexpr
                0x4a0533e0       0x1c cmd/built-in.o
                0x4a0533e0                _u_boot_list_2_cmd_2_setexpr
 .u_boot_list_2_cmd_2_showvar
                0x4a0533fc       0x1c common/built-in.o
                0x4a0533fc                _u_boot_list_2_cmd_2_showvar
 .u_boot_list_2_cmd_2_size
                0x4a053418       0x1c cmd/built-in.o
                0x4a053418                _u_boot_list_2_cmd_2_size
 .u_boot_list_2_cmd_2_sleep
                0x4a053434       0x1c cmd/built-in.o
                0x4a053434                _u_boot_list_2_cmd_2_sleep
 .u_boot_list_2_cmd_2_source
                0x4a053450       0x1c cmd/built-in.o
                0x4a053450                _u_boot_list_2_cmd_2_source
 .u_boot_list_2_cmd_2_sysboot
                0x4a05346c       0x1c cmd/built-in.o
                0x4a05346c                _u_boot_list_2_cmd_2_sysboot
 .u_boot_list_2_cmd_2_test
                0x4a053488       0x1c cmd/built-in.o
                0x4a053488                _u_boot_list_2_cmd_2_test
 .u_boot_list_2_cmd_2_tftpboot
                0x4a0534a4       0x1c cmd/built-in.o
                0x4a0534a4                _u_boot_list_2_cmd_2_tftpboot
 .u_boot_list_2_cmd_2_true
                0x4a0534c0       0x1c cmd/built-in.o
                0x4a0534c0                _u_boot_list_2_cmd_2_true
 .u_boot_list_2_cmd_2_usb
                0x4a0534dc       0x1c cmd/built-in.o
                0x4a0534dc                _u_boot_list_2_cmd_2_usb
 .u_boot_list_2_cmd_2_usbboot
                0x4a0534f8       0x1c cmd/built-in.o
                0x4a0534f8                _u_boot_list_2_cmd_2_usbboot
 .u_boot_list_2_cmd_2_version
                0x4a053514       0x1c cmd/built-in.o
                0x4a053514                _u_boot_list_2_cmd_2_version
 .u_boot_list_2_cmd_3
                0x4a053530        0x0 cmd/built-in.o
 .u_boot_list_2_cmd_3
                0x4a053530        0x0 common/built-in.o
 .u_boot_list_2_driver_1
                0x4a053530        0x0 drivers/built-in.o
 .u_boot_list_2_driver_2_ehci_sunxi
                0x4a053530       0x44 drivers/usb/host/built-in.o
                0x4a053530                _u_boot_list_2_driver_2_ehci_sunxi
 .u_boot_list_2_driver_2_eth_sun8i_emac
                0x4a053574       0x44 drivers/net/built-in.o
                0x4a053574                _u_boot_list_2_driver_2_eth_sun8i_emac
 .u_boot_list_2_driver_2_gpio_sunxi
                0x4a0535b8       0x44 drivers/gpio/built-in.o
                0x4a0535b8                _u_boot_list_2_driver_2_gpio_sunxi
 .u_boot_list_2_driver_2_ns16550_serial
                0x4a0535fc       0x44 drivers/serial/built-in.o
                0x4a0535fc                _u_boot_list_2_driver_2_ns16550_serial
 .u_boot_list_2_driver_2_root_driver
                0x4a053640       0x44 drivers/built-in.o
                0x4a053640                _u_boot_list_2_driver_2_root_driver
 .u_boot_list_2_driver_2_simple_bus_drv
                0x4a053684       0x44 drivers/built-in.o
                0x4a053684                _u_boot_list_2_driver_2_simple_bus_drv
 .u_boot_list_2_driver_2_usb_dev_generic_drv
                0x4a0536c8       0x44 drivers/usb/host/built-in.o
                0x4a0536c8                _u_boot_list_2_driver_2_usb_dev_generic_drv
 .u_boot_list_2_driver_2_usb_generic_hub
                0x4a05370c       0x44 common/built-in.o
                0x4a05370c                _u_boot_list_2_driver_2_usb_generic_hub
 .u_boot_list_2_driver_2_usb_mass_storage
                0x4a053750       0x44 common/built-in.o
                0x4a053750                _u_boot_list_2_driver_2_usb_mass_storage
 .u_boot_list_2_driver_2_usb_ohci
                0x4a053794       0x44 drivers/usb/host/built-in.o
                0x4a053794                _u_boot_list_2_driver_2_usb_ohci
 .u_boot_list_2_driver_3
                0x4a0537d8        0x0 drivers/built-in.o
 .u_boot_list_2_driver_info_1
                0x4a0537d8        0x0 drivers/built-in.o
 .u_boot_list_2_driver_info_3
                0x4a0537d8        0x0 drivers/built-in.o
 .u_boot_list_2_env_clbk_1
                0x4a0537d8        0x0 common/built-in.o
 .u_boot_list_2_env_clbk_2_baudrate
                0x4a0537d8        0x8 drivers/serial/built-in.o
                0x4a0537d8                _u_boot_list_2_env_clbk_2_baudrate
 .u_boot_list_2_env_clbk_2_bootfile
                0x4a0537e0        0x8 net/built-in.o
                0x4a0537e0                _u_boot_list_2_env_clbk_2_bootfile
 .u_boot_list_2_env_clbk_2_callbacks
                0x4a0537e8        0x8 common/built-in.o
                0x4a0537e8                _u_boot_list_2_env_clbk_2_callbacks
 .u_boot_list_2_env_clbk_2_console
                0x4a0537f0        0x8 common/built-in.o
                0x4a0537f0                _u_boot_list_2_env_clbk_2_console
 .u_boot_list_2_env_clbk_2_ethaddr
                0x4a0537f8        0x8 net/built-in.o
                0x4a0537f8                _u_boot_list_2_env_clbk_2_ethaddr
 .u_boot_list_2_env_clbk_2_flags
                0x4a053800        0x8 common/built-in.o
                0x4a053800                _u_boot_list_2_env_clbk_2_flags
 .u_boot_list_2_env_clbk_2_gatewayip
                0x4a053808        0x8 net/built-in.o
                0x4a053808                _u_boot_list_2_env_clbk_2_gatewayip
 .u_boot_list_2_env_clbk_2_ipaddr
                0x4a053810        0x8 net/built-in.o
                0x4a053810                _u_boot_list_2_env_clbk_2_ipaddr
 .u_boot_list_2_env_clbk_2_loadaddr
                0x4a053818        0x8 common/built-in.o
                0x4a053818                _u_boot_list_2_env_clbk_2_loadaddr
 .u_boot_list_2_env_clbk_2_netmask
                0x4a053820        0x8 net/built-in.o
                0x4a053820                _u_boot_list_2_env_clbk_2_netmask
 .u_boot_list_2_env_clbk_2_nvlan
                0x4a053828        0x8 net/built-in.o
                0x4a053828                _u_boot_list_2_env_clbk_2_nvlan
 .u_boot_list_2_env_clbk_2_serverip
                0x4a053830        0x8 net/built-in.o
                0x4a053830                _u_boot_list_2_env_clbk_2_serverip
 .u_boot_list_2_env_clbk_2_vlan
                0x4a053838        0x8 net/built-in.o
                0x4a053838                _u_boot_list_2_env_clbk_2_vlan
 .u_boot_list_2_env_clbk_3
                0x4a053840        0x0 common/built-in.o
 .u_boot_list_2_i2c_1
                0x4a053840        0x0 cmd/built-in.o
 .u_boot_list_2_i2c_1
                0x4a053840        0x0 drivers/i2c/built-in.o
 .u_boot_list_2_i2c_2_twsi5
                0x4a053840       0x2c drivers/i2c/built-in.o
                0x4a053840                _u_boot_list_2_i2c_2_twsi5
 .u_boot_list_2_i2c_3
                0x4a05386c        0x0 cmd/built-in.o
 .u_boot_list_2_i2c_3
                0x4a05386c        0x0 drivers/i2c/built-in.o
 .u_boot_list_2_part_driver_1
                0x4a05386c        0x0 disk/built-in.o
 .u_boot_list_2_part_driver_2_a_efi
                0x4a05386c       0x14 disk/built-in.o
                0x4a05386c                _u_boot_list_2_part_driver_2_a_efi
 .u_boot_list_2_part_driver_2_dos
                0x4a053880       0x14 disk/built-in.o
                0x4a053880                _u_boot_list_2_part_driver_2_dos
 .u_boot_list_2_part_driver_2_iso
                0x4a053894       0x14 disk/built-in.o
                0x4a053894                _u_boot_list_2_part_driver_2_iso
 .u_boot_list_2_part_driver_3
                0x4a0538a8        0x0 disk/built-in.o
 .u_boot_list_2_uclass_1
                0x4a0538a8        0x0 drivers/built-in.o
 .u_boot_list_2_uclass_2_eth
                0x4a0538a8       0x48 net/built-in.o
                0x4a0538a8                _u_boot_list_2_uclass_2_eth
 .u_boot_list_2_uclass_2_gpio
                0x4a0538f0       0x48 drivers/gpio/built-in.o
                0x4a0538f0                _u_boot_list_2_uclass_2_gpio
 .u_boot_list_2_uclass_2_keyboard
                0x4a053938       0x48 drivers/built-in.o
                0x4a053938                _u_boot_list_2_uclass_2_keyboard
 .u_boot_list_2_uclass_2_root
                0x4a053980       0x48 drivers/built-in.o
                0x4a053980                _u_boot_list_2_uclass_2_root
 .u_boot_list_2_uclass_2_serial
                0x4a0539c8       0x48 drivers/serial/built-in.o
                0x4a0539c8                _u_boot_list_2_uclass_2_serial
 .u_boot_list_2_uclass_2_simple_bus
                0x4a053a10       0x48 drivers/built-in.o
                0x4a053a10                _u_boot_list_2_uclass_2_simple_bus
 .u_boot_list_2_uclass_2_usb
                0x4a053a58       0x48 drivers/usb/host/built-in.o
                0x4a053a58                _u_boot_list_2_uclass_2_usb
 .u_boot_list_2_uclass_2_usb_dev_generic
                0x4a053aa0       0x48 drivers/usb/host/built-in.o
                0x4a053aa0                _u_boot_list_2_uclass_2_usb_dev_generic
 .u_boot_list_2_uclass_2_usb_hub
                0x4a053ae8       0x48 common/built-in.o
                0x4a053ae8                _u_boot_list_2_uclass_2_usb_hub
 .u_boot_list_2_uclass_2_usb_mass_storage
                0x4a053b30       0x48 common/built-in.o
                0x4a053b30                _u_boot_list_2_uclass_2_usb_mass_storage
 .u_boot_list_2_uclass_3
                0x4a053b78        0x0 drivers/built-in.o
 .u_boot_list_2_usb_driver_entry_1
                0x4a053b78        0x0 drivers/usb/host/built-in.o
 .u_boot_list_2_usb_driver_entry_2_usb_generic_hub
                0x4a053b78        0x8 common/built-in.o
                0x4a053b78                _u_boot_list_2_usb_driver_entry_2_usb_generic_hub
 .u_boot_list_2_usb_driver_entry_2_usb_mass_storage
                0x4a053b80        0x8 common/built-in.o
                0x4a053b80                _u_boot_list_2_usb_driver_entry_2_usb_mass_storage
 .u_boot_list_2_usb_driver_entry_3
                0x4a053b88        0x0 drivers/usb/host/built-in.o
                0x4a053b88                . = ALIGN (0x4)

.__efi_runtime_start
                0x4a053b88        0x0
 *(.__efi_runtime_start)
 .__efi_runtime_start
                0x4a053b88        0x0 arch/arm/lib/built-in.o

.efi_runtime    0x4a053b88       0xe0
 *(efi_runtime_text)
 efi_runtime_text
                0x4a053b88       0x18 lib/built-in.o
 *(efi_runtime_data)
 efi_runtime_data
                0x4a053ba0       0xc8 lib/built-in.o
                0x4a053ba0                systab
                0x4a053c18                efi_runtime_services

.__efi_runtime_stop
                0x4a053c68        0x0
 *(.__efi_runtime_stop)
 .__efi_runtime_stop
                0x4a053c68        0x0 arch/arm/lib/built-in.o

.efi_runtime_rel_start
                0x4a053c68        0x0
 *(.__efi_runtime_rel_start)
 .__efi_runtime_rel_start
                0x4a053c68        0x0 arch/arm/lib/built-in.o

.efi_runtime_rel
                0x4a053c68       0x90
 *(.relefi_runtime_text)
 *(.relefi_runtime_data)
 .relefi_runtime_data
                0x4a053c68       0x90 arch/arm/cpu/armv7/start.o

.efi_runtime_rel_stop
                0x4a053cf8        0x0
 *(.__efi_runtime_rel_stop)
 .__efi_runtime_rel_stop
                0x4a053cf8        0x0 arch/arm/lib/built-in.o
                0x4a053cf8                . = ALIGN (0x4)

.image_copy_end
                0x4a053cf8        0x0
 *(.__image_copy_end)
 .__image_copy_end
                0x4a053cf8        0x0 arch/arm/lib/built-in.o

.rel_dyn_start  0x4a053cf8        0x0
 *(.__rel_dyn_start)
 .__rel_dyn_start
                0x4a053cf8        0x0 arch/arm/lib/built-in.o

.rel.dyn        0x4a053cf8     0x9100
 *(.rel*)
 .rel.got       0x00000000        0x0 arch/arm/cpu/armv7/start.o
 .rel.plt       0x00000000        0x0 arch/arm/cpu/armv7/start.o
 .rel.iplt      0x00000000        0x0 arch/arm/cpu/armv7/start.o
 .rel.text      0x4a053cf8       0x20 arch/arm/cpu/armv7/start.o
 .rel._secure.text
                0x4a053d18       0xd8 arch/arm/cpu/armv7/start.o
 .rel.text.get_gicd_base_address
                0x4a053df0        0x8 arch/arm/cpu/armv7/start.o
 .rel.text.armv7_init_nonsec
                0x4a053df8        0x8 arch/arm/cpu/armv7/start.o
 .rel.text.psci_update_dt
                0x4a053e00       0x10 arch/arm/cpu/armv7/start.o
 .rel.vectors   0x4a053e10       0x38 arch/arm/cpu/armv7/start.o
 .rel.text.relocate_vectors
                0x4a053e48       0x20 arch/arm/cpu/armv7/start.o
 .rel.text.setup_initrd_tag.isra.1
                0x4a053e68        0x8 arch/arm/cpu/armv7/start.o
 .rel.text.boot_prep_linux
                0x4a053e70       0x18 arch/arm/cpu/armv7/start.o
 .rel.text.armv7_boot_nonsec
                0x4a053e88       0x18 arch/arm/cpu/armv7/start.o
 .rel.text.boot_jump_linux
                0x4a053ea0       0x28 arch/arm/cpu/armv7/start.o
 .rel.text.boot_prep_vxworks
                0x4a053ec8       0x10 arch/arm/cpu/armv7/start.o
 .rel.text.interrupt_init
                0x4a053ed8        0x8 arch/arm/cpu/armv7/start.o
 .rel.text.bad_mode
                0x4a053ee0        0x8 arch/arm/cpu/armv7/start.o
 .rel.text.show_regs
                0x4a053ee8       0x60 arch/arm/cpu/armv7/start.o
 .rel.text.do_undefined_instruction
                0x4a053f48        0x8 arch/arm/cpu/armv7/start.o
 .rel.text.do_software_interrupt
                0x4a053f50        0x8 arch/arm/cpu/armv7/start.o
 .rel.text.do_prefetch_abort
                0x4a053f58        0x8 arch/arm/cpu/armv7/start.o
 .rel.text.do_data_abort
                0x4a053f60        0x8 arch/arm/cpu/armv7/start.o
 .rel.text.do_not_used
                0x4a053f68        0x8 arch/arm/cpu/armv7/start.o
 .rel.text.do_fiq
                0x4a053f70        0x8 arch/arm/cpu/armv7/start.o
 .rel.text.do_irq
                0x4a053f78        0x8 arch/arm/cpu/armv7/start.o
 .rel.text.do_reset
                0x4a053f80        0x8 arch/arm/cpu/armv7/start.o
 .rel.text.enable_caches
                0x00000000        0x0 arch/arm/cpu/armv7/start.o
 .rel.text.check_cache_range
                0x4a053f88        0x8 arch/arm/cpu/armv7/start.o
 .rel.text.fdt_psci
                0x4a053f90       0x80 arch/arm/cpu/armv7/start.o
 .rel.rodata    0x4a054010      0x100 arch/arm/cpu/armv7/start.o
 .rel.text.spl_board_load_image
                0x00000000        0x0 arch/arm/cpu/armv7/start.o
 .rel.text.print_cpuinfo
                0x4a054110        0x8 arch/arm/cpu/armv7/start.o
 .rel.text.mctl_await_completion
                0x00000000        0x0 arch/arm/cpu/armv7/start.o
 .rel.text.sunxi_usb_phy_enable_squelch_detect
                0x00000000        0x0 arch/arm/cpu/armv7/start.o
 .rel.text.sunxi_usb_phy_init
                0x4a054118        0x8 arch/arm/cpu/armv7/start.o
 .rel.text.sunxi_usb_phy_exit
                0x4a054120        0x8 arch/arm/cpu/armv7/start.o
 .rel.text.sunxi_usb_phy_power_on
                0x4a054128       0x10 arch/arm/cpu/armv7/start.o
 .rel.text.sunxi_usb_phy_power_off
                0x00000000        0x0 arch/arm/cpu/armv7/start.o
 .rel.text.sunxi_usb_phy_power_is_on
                0x00000000        0x0 arch/arm/cpu/armv7/start.o
 .rel.text.sunxi_usb_phy_vbus_detect
                0x00000000        0x0 arch/arm/cpu/armv7/start.o
 .rel.text.sunxi_usb_phy_id_detect
                0x00000000        0x0 arch/arm/cpu/armv7/start.o
 .rel.text.sunxi_usb_phy_probe
                0x4a054138       0x30 arch/arm/cpu/armv7/start.o
 .rel.text.sunxi_usb_phy_remove
                0x00000000        0x0 arch/arm/cpu/armv7/start.o
 .rel.text.setup_environment
                0x4a054168       0x28 arch/arm/cpu/armv7/start.o
 .rel.text.mmc_pinmux_setup
                0x4a054190       0x30 arch/arm/cpu/armv7/start.o
 .rel.text.board_init
                0x4a0541c0       0x10 arch/arm/cpu/armv7/start.o
 .rel.text.get_board_serial
                0x4a0541d0        0x8 arch/arm/cpu/armv7/start.o
 .rel.text.misc_init_r
                0x4a0541d8       0x38 arch/arm/cpu/armv7/start.o
 .rel.text.do_go
                0x4a054210       0x10 arch/arm/cpu/armv7/start.o
 .rel.text.image_info
                0x4a054220       0x40 arch/arm/cpu/armv7/start.o
 .rel.text.do_bootd
                0x4a054260        0x8 arch/arm/cpu/armv7/start.o
 .rel.text.do_bootm
                0x4a054268       0x18 arch/arm/cpu/armv7/start.o
 .rel.text.do_iminfo
                0x4a054280        0x8 arch/arm/cpu/armv7/start.o
 .rel.text.bootm_maybe_autostart
                0x4a054288       0x20 arch/arm/cpu/armv7/start.o
 .rel.text.do_help
                0x4a0542a8       0x10 arch/arm/cpu/armv7/start.o
 .rel.text.do_version
                0x4a0542b8       0x20 arch/arm/cpu/armv7/start.o
 .rel.text.source
                0x4a0542d8       0x38 arch/arm/cpu/armv7/start.o
 .rel.text.do_source
                0x4a054310        0x8 arch/arm/cpu/armv7/start.o
 .rel.text.print_num
                0x4a054318        0x8 arch/arm/cpu/armv7/start.o
 .rel.text.do_bdinfo
                0x4a054320       0x60 arch/arm/cpu/armv7/start.o
 .rel.text.bootefi_open_dp
                0x4a054380        0x8 arch/arm/cpu/armv7/start.o
 .rel.text.do_bootefi_exec
                0x4a054388       0x50 arch/arm/cpu/armv7/start.o
 .rel.text.do_bootefi
                0x4a0543d8       0x10 arch/arm/cpu/armv7/start.o
 .rel.text.efi_set_bootdev
                0x4a0543e8       0x38 arch/arm/cpu/armv7/start.o
 .rel.text.bootz_setup
                0x00000000        0x0 arch/arm/cpu/armv7/start.o
 .rel.text.do_bootz
                0x4a054420       0x10 arch/arm/cpu/armv7/start.o
 .rel.text.do_coninfo
                0x4a054430       0x28 arch/arm/cpu/armv7/start.o
 .rel.text.do_echo
                0x4a054458        0x8 arch/arm/cpu/armv7/start.o
 .rel.text.valid_elf_image
                0x4a054460       0x10 arch/arm/cpu/armv7/start.o
 .rel.text.do_bootvx
                0x4a054470       0xe0 arch/arm/cpu/armv7/start.o
 .rel.text.do_bootelf
                0x4a054550       0x28 arch/arm/cpu/armv7/start.o
 .rel.text.do_fat_fswrite
                0x4a054578       0x18 arch/arm/cpu/armv7/start.o
 .rel.text.do_fat_fsinfo
                0x4a054590       0x10 arch/arm/cpu/armv7/start.o
 .rel.text.fdt_valid
                0x4a0545a0       0x28 arch/arm/cpu/armv7/start.o
 .rel.text.is_printable_string
                0x4a0545c8        0x8 arch/arm/cpu/armv7/start.o
 .rel.text.print_data
                0x4a0545d0       0x58 arch/arm/cpu/armv7/start.o
 .rel.text.set_working_fdt_addr
                0x4a054628       0x10 arch/arm/cpu/armv7/start.o
 .rel.text.do_fdt
                0x4a054638      0x260 arch/arm/cpu/armv7/start.o
 .rel.text.do_load_wrapper
                0x4a054898        0x8 arch/arm/cpu/armv7/start.o
 .rel.text.gpio_get_description
                0x4a0548a0       0x18 arch/arm/cpu/armv7/start.o
 .rel.text.do_gpio
                0x4a0548b8       0x50 arch/arm/cpu/armv7/start.o
 .rel.text.do_i2c
                0x4a054908        0x8 arch/arm/cpu/armv7/start.o
 .rel.text.i2c_report_err
                0x4a054910       0x18 arch/arm/cpu/armv7/start.o
 .rel.text.do_i2c_bus_speed
                0x4a054928       0x18 arch/arm/cpu/armv7/start.o
 .rel.text.do_i2c_probe
                0x4a054940       0x10 arch/arm/cpu/armv7/start.o
 .rel.text.do_i2c_bus_num
                0x4a054950       0x30 arch/arm/cpu/armv7/start.o
 .rel.text.do_i2c_show_bus
                0x4a054980       0x28 arch/arm/cpu/armv7/start.o
 .rel.text.do_i2c_crc
                0x4a0549a8       0x10 arch/arm/cpu/armv7/start.o
 .rel.text.mod_i2c_mem.isra.3
                0x4a0549b8       0x48 arch/arm/cpu/armv7/start.o
 .rel.text.do_i2c_md
                0x4a054a00       0x48 arch/arm/cpu/armv7/start.o
 .rel.text.do_i2c_write
                0x4a054a48        0x8 arch/arm/cpu/armv7/start.o
 .rel.text.binary_test
                0x4a054a50       0x70 arch/arm/cpu/armv7/start.o
 .rel.text.do_itest
                0x4a054ac0       0x40 arch/arm/cpu/armv7/start.o
 .rel.text.bin_data_init
                0x4a054b00       0x18 arch/arm/cpu/armv7/start.o
 .rel.text.k_data_save
                0x4a054b18       0x30 arch/arm/cpu/armv7/start.o
 .rel.text.k_data_restore
                0x4a054b48       0x30 arch/arm/cpu/armv7/start.o
 .rel.text.load_serial_ymodem
                0x4a054b78       0x20 arch/arm/cpu/armv7/start.o
 .rel.text.load_serial
                0x4a054b98       0x68 arch/arm/cpu/armv7/start.o
 .rel.text.do_load_serial
                0x4a054c00       0x30 arch/arm/cpu/armv7/start.o
 .rel.text.bin_data_char
                0x4a054c30       0x10 arch/arm/cpu/armv7/start.o
 .rel.text.s1_sendpacket.constprop.1
                0x4a054c40       0x18 arch/arm/cpu/armv7/start.o
 .rel.text.chk1.constprop.2
                0x4a054c58        0x8 arch/arm/cpu/armv7/start.o
 .rel.text.do_load_serial_bin
                0x4a054c60       0xe8 arch/arm/cpu/armv7/start.o
 .rel.text.do_mem_mw
                0x4a054d48        0x8 arch/arm/cpu/armv7/start.o
 .rel.text.do_mem_base
                0x4a054d50       0x10 arch/arm/cpu/armv7/start.o
 .rel.text.do_mem_cmp
                0x4a054d60       0x38 arch/arm/cpu/armv7/start.o
 .rel.text.do_mem_crc
                0x4a054d98        0x8 arch/arm/cpu/armv7/start.o
 .rel.text.do_mem_cp
                0x4a054da0       0x10 arch/arm/cpu/armv7/start.o
 .rel.text.do_mem_md
                0x4a054db0       0x20 arch/arm/cpu/armv7/start.o
 .rel.text.mod_mem.isra.2
                0x4a054dd0       0x48 arch/arm/cpu/armv7/start.o
 .rel.text.do_mii
                0x4a054e18      0x160 arch/arm/cpu/armv7/start.o
 .rel.text.do_mdio
                0x4a054f78       0x70 arch/arm/cpu/armv7/start.o
 .rel.text.do_mmcops
                0x4a054fe8       0x18 arch/arm/cpu/armv7/start.o
 .rel.text.init_mmc_device
                0x4a055000        0x8 arch/arm/cpu/armv7/start.o
 .rel.text.do_mmc_rescan
                0x4a055008        0x8 arch/arm/cpu/armv7/start.o
 .rel.text.do_mmcinfo
                0x4a055010       0xf8 arch/arm/cpu/armv7/start.o
 .rel.text.do_mmc_hwpartition
                0x4a055108       0xb0 arch/arm/cpu/armv7/start.o
 .rel.text.do_mmc_dev
                0x4a0551b8       0x38 arch/arm/cpu/armv7/start.o
 .rel.text.do_mmc_part
                0x4a0551f0       0x10 arch/arm/cpu/armv7/start.o
 .rel.text.do_mmc_erase
                0x4a055200       0x30 arch/arm/cpu/armv7/start.o
 .rel.text.do_mmc_write
                0x4a055230       0x30 arch/arm/cpu/armv7/start.o
 .rel.text.do_mmc_read
                0x4a055260       0x28 arch/arm/cpu/armv7/start.o
 .rel.text.do_mmc_setdsr
                0x4a055288       0x28 arch/arm/cpu/armv7/start.o
 .rel.text.netboot_common
                0x4a0552b0       0x98 arch/arm/cpu/armv7/start.o
 .rel.text.do_ping
                0x4a055348       0x18 arch/arm/cpu/armv7/start.o
 .rel.text.do_part
                0x4a055360       0x58 arch/arm/cpu/armv7/start.o
 .rel.text.label_print
                0x4a0553b8        0x8 arch/arm/cpu/armv7/start.o
 .rel.text.get_string
                0x4a0553c0        0x8 arch/arm/cpu/armv7/start.o
 .rel.text.get_token
                0x4a0553c8        0x8 arch/arm/cpu/armv7/start.o
 .rel.text.parse_sliteral
                0x4a0553d0        0x8 arch/arm/cpu/armv7/start.o
 .rel.text.parse_integer
                0x4a0553d8        0x8 arch/arm/cpu/armv7/start.o
 .rel.text.do_get_any
                0x4a0553e0       0x10 arch/arm/cpu/armv7/start.o
 .rel.text.do_get_fat
                0x4a0553f0       0x10 arch/arm/cpu/armv7/start.o
 .rel.text.do_get_ext2
                0x4a055400       0x10 arch/arm/cpu/armv7/start.o
 .rel.text.do_pxe
                0x4a055410       0x10 arch/arm/cpu/armv7/start.o
 .rel.text.do_get_tftp
                0x4a055420        0x8 arch/arm/cpu/armv7/start.o
 .rel.text.from_env
                0x4a055428        0x8 arch/arm/cpu/armv7/start.o
 .rel.text.get_relfile
                0x4a055430       0x38 arch/arm/cpu/armv7/start.o
 .rel.text.get_pxe_file
                0x4a055468        0x8 arch/arm/cpu/armv7/start.o
 .rel.text.get_pxelinux_path
                0x4a055470       0x18 arch/arm/cpu/armv7/start.o
 .rel.text.handle_include
                0x4a055488       0x10 arch/arm/cpu/armv7/start.o
 .rel.text.parse_pxefile_top
                0x4a055498      0x150 arch/arm/cpu/armv7/start.o
 .rel.text.format_mac_pxe.constprop.11
                0x4a0555e8       0x10 arch/arm/cpu/armv7/start.o
 .rel.text.do_pxe_get
                0x4a0555f8       0x48 arch/arm/cpu/armv7/start.o
 .rel.text.label_boot
                0x4a055640       0xf8 arch/arm/cpu/armv7/start.o
 .rel.text.handle_pxe_menu
                0x4a055738       0x18 arch/arm/cpu/armv7/start.o
 .rel.text.do_sysboot
                0x4a055750       0x80 arch/arm/cpu/armv7/start.o
 .rel.text.do_pxe_boot
                0x4a0557d0       0x38 arch/arm/cpu/armv7/start.o
 .rel.text.substitute
                0x4a055808        0x8 arch/arm/cpu/armv7/start.o
 .rel.text.regex_sub
                0x4a055810       0x38 arch/arm/cpu/armv7/start.o
 .rel.text.do_setexpr
                0x4a055848       0x18 arch/arm/cpu/armv7/start.o
 .rel.text.do_test
                0x4a055860       0x70 arch/arm/cpu/armv7/start.o
 .rel.text.usb_get_class_desc
                0x4a0558d0       0x50 arch/arm/cpu/armv7/start.o
 .rel.text.do_usbboot
                0x4a055920        0x8 arch/arm/cpu/armv7/start.o
 .rel.text.usb_display_class_sub
                0x4a055928       0xc8 arch/arm/cpu/armv7/start.o
 .rel.text.usb_display_string
                0x4a0559f0        0x8 arch/arm/cpu/armv7/start.o
 .rel.text.usb_display_config
                0x4a0559f8       0xa8 arch/arm/cpu/armv7/start.o
 .rel.text.usb_show_tree_graph
                0x4a055aa0       0x48 arch/arm/cpu/armv7/start.o
 .rel.text.usb_display_desc.part.6
                0x4a055ae8       0x38 arch/arm/cpu/armv7/start.o
 .rel.text.usb_show_tree
                0x4a055b20        0x8 arch/arm/cpu/armv7/start.o
 .rel.text.do_usb
                0x4a055b28      0x178 arch/arm/cpu/armv7/start.o
 .rel.text.common_diskboot
                0x4a055ca0       0x28 arch/arm/cpu/armv7/start.o
 .rel.text.do_imgextract
                0x4a055cc8       0x90 arch/arm/cpu/armv7/start.o
 .rel.text.do_env_delete
                0x4a055d58       0x10 arch/arm/cpu/armv7/start.o
 .rel.text.do_env_exists
                0x4a055d68        0x8 arch/arm/cpu/armv7/start.o
 .rel.text.env_print
                0x4a055d70       0x18 arch/arm/cpu/armv7/start.o
 .rel.text.do_env_print
                0x4a055d88       0x10 arch/arm/cpu/armv7/start.o
 .rel.text.do_env
                0x4a055d98        0x8 arch/arm/cpu/armv7/start.o
 .rel.text.do_env_import
                0x4a055da0       0x58 arch/arm/cpu/armv7/start.o
 .rel.text.do_env_default
                0x4a055df8        0x8 arch/arm/cpu/armv7/start.o
 .rel.text.do_env_save
                0x4a055e00       0x10 arch/arm/cpu/armv7/start.o
 .rel.text._do_env_set.isra.1
                0x4a055e10       0x30 arch/arm/cpu/armv7/start.o
 .rel.text.get_env_id
                0x4a055e40        0x8 arch/arm/cpu/armv7/start.o
 .rel.text.setenv
                0x4a055e48        0x8 arch/arm/cpu/armv7/start.o
 .rel.text.setenv_hex
                0x4a055e50        0x8 arch/arm/cpu/armv7/start.o
 .rel.text.do_env_export
                0x4a055e58       0x40 arch/arm/cpu/armv7/start.o
 .rel.text.getenv_f
                0x4a055e98        0x8 arch/arm/cpu/armv7/start.o
 .rel.text.getenv
                0x4a055ea0        0x8 arch/arm/cpu/armv7/start.o
 .rel.text.do_env_edit.part.3
                0x4a055ea8       0x18 arch/arm/cpu/armv7/start.o
 .rel.rodata.op_table
                0x4a055ec0       0x68 arch/arm/cpu/armv7/start.o
 .rel.rodata.reg_4_desc_tbl
                0x4a055f28       0x60 arch/arm/cpu/armv7/start.o
 .rel.rodata.desc_and_len_tbl
                0x4a055f88       0x30 arch/arm/cpu/armv7/start.o
 .rel.rodata.reg_5_desc_tbl
                0x4a055fb8       0x60 arch/arm/cpu/armv7/start.o
 .rel.rodata.reg_2_desc_tbl
                0x4a056018        0x8 arch/arm/cpu/armv7/start.o
 .rel.rodata.reg_0_5_desc_tbl
                0x4a056020       0x30 arch/arm/cpu/armv7/start.o
 .rel.rodata.reg_3_desc_tbl
                0x4a056050       0x18 arch/arm/cpu/armv7/start.o
 .rel.rodata.reg_0_desc_tbl
                0x4a056068       0x50 arch/arm/cpu/armv7/start.o
 .rel.rodata.reg_1_desc_tbl
                0x4a0560b8       0x80 arch/arm/cpu/armv7/start.o
 .rel.rodata.keywords
                0x4a056138       0x90 arch/arm/cpu/armv7/start.o
 .rel.rodata.op_adv
                0x4a0561c8       0x80 arch/arm/cpu/armv7/start.o
 .rel.rodata.CSWTCH.26
                0x4a056248       0x28 arch/arm/cpu/armv7/start.o
 .rel.u_boot_list_2_cmd_2_go
                0x4a056270       0x20 arch/arm/cpu/armv7/start.o
 .rel.u_boot_list_2_cmd_2_reset
                0x4a056290       0x20 arch/arm/cpu/armv7/start.o
 .rel.u_boot_list_2_cmd_2_iminfo
                0x4a0562b0       0x20 arch/arm/cpu/armv7/start.o
 .rel.u_boot_list_2_cmd_2_boot
                0x4a0562d0       0x20 arch/arm/cpu/armv7/start.o
 .rel.u_boot_list_2_cmd_2_bootd
                0x4a0562f0       0x20 arch/arm/cpu/armv7/start.o
 .rel.u_boot_list_2_cmd_2_bootm
                0x4a056310       0x20 arch/arm/cpu/armv7/start.o
 .rel.data.cmd_bootm_sub
                0x4a056330       0xd8 arch/arm/cpu/armv7/start.o
 .rel.u_boot_list_2_cmd_2_question_mark
                0x4a056408       0x20 arch/arm/cpu/armv7/start.o
 .rel.u_boot_list_2_cmd_2_help
                0x4a056428       0x20 arch/arm/cpu/armv7/start.o
 .rel.u_boot_list_2_cmd_2_version
                0x4a056448       0x20 arch/arm/cpu/armv7/start.o
 .rel.u_boot_list_2_cmd_2_source
                0x4a056468       0x20 arch/arm/cpu/armv7/start.o
 .rel.u_boot_list_2_cmd_2_bdinfo
                0x4a056488       0x20 arch/arm/cpu/armv7/start.o
 .rel.data.loaded_image_info_obj
                0x4a0564a8       0x28 arch/arm/cpu/armv7/start.o
 .rel.u_boot_list_2_cmd_2_bootefi
                0x4a0564d0       0x20 arch/arm/cpu/armv7/start.o
 .rel.data.bootefi_device_obj
                0x4a0564f0       0x18 arch/arm/cpu/armv7/start.o
 .rel.data.loaded_image_info
                0x4a056508       0x10 arch/arm/cpu/armv7/start.o
 .rel.u_boot_list_2_cmd_2_bootz
                0x4a056518       0x20 arch/arm/cpu/armv7/start.o
 .rel.u_boot_list_2_cmd_2_coninfo
                0x4a056538       0x20 arch/arm/cpu/armv7/start.o
 .rel.u_boot_list_2_cmd_2_echo
                0x4a056558       0x20 arch/arm/cpu/armv7/start.o
 .rel.u_boot_list_2_cmd_2_bootelf
                0x4a056578       0x20 arch/arm/cpu/armv7/start.o
 .rel.u_boot_list_2_cmd_2_bootvx
                0x4a056598       0x20 arch/arm/cpu/armv7/start.o
 .rel.u_boot_list_2_cmd_2_exit
                0x4a0565b8       0x20 arch/arm/cpu/armv7/start.o
 .rel.u_boot_list_2_cmd_2_ext4load
                0x4a0565d8       0x20 arch/arm/cpu/armv7/start.o
 .rel.u_boot_list_2_cmd_2_ext4ls
                0x4a0565f8       0x20 arch/arm/cpu/armv7/start.o
 .rel.u_boot_list_2_cmd_2_ext4size
                0x4a056618       0x20 arch/arm/cpu/armv7/start.o
 .rel.u_boot_list_2_cmd_2_ext2ls
                0x4a056638       0x20 arch/arm/cpu/armv7/start.o
 .rel.u_boot_list_2_cmd_2_ext2load
                0x4a056658       0x20 arch/arm/cpu/armv7/start.o
 .rel.u_boot_list_2_cmd_2_fatinfo
                0x4a056678       0x20 arch/arm/cpu/armv7/start.o
 .rel.u_boot_list_2_cmd_2_fatwrite
                0x4a056698       0x20 arch/arm/cpu/armv7/start.o
 .rel.u_boot_list_2_cmd_2_fatload
                0x4a0566b8       0x20 arch/arm/cpu/armv7/start.o
 .rel.u_boot_list_2_cmd_2_fatls
                0x4a0566d8       0x20 arch/arm/cpu/armv7/start.o
 .rel.u_boot_list_2_cmd_2_fatsize
                0x4a0566f8       0x20 arch/arm/cpu/armv7/start.o
 .rel.u_boot_list_2_cmd_2_fdt
                0x4a056718       0x20 arch/arm/cpu/armv7/start.o
 .rel.u_boot_list_2_cmd_2_save
                0x4a056738       0x20 arch/arm/cpu/armv7/start.o
 .rel.u_boot_list_2_cmd_2_size
                0x4a056758       0x20 arch/arm/cpu/armv7/start.o
 .rel.u_boot_list_2_cmd_2_fstype
                0x4a056778       0x20 arch/arm/cpu/armv7/start.o
 .rel.u_boot_list_2_cmd_2_ls
                0x4a056798       0x20 arch/arm/cpu/armv7/start.o
 .rel.u_boot_list_2_cmd_2_load
                0x4a0567b8       0x20 arch/arm/cpu/armv7/start.o
 .rel.u_boot_list_2_cmd_2_gpio
                0x4a0567d8       0x20 arch/arm/cpu/armv7/start.o
 .rel.u_boot_list_2_cmd_2_i2c
                0x4a0567f8       0x20 arch/arm/cpu/armv7/start.o
 .rel.data.cmd_i2c_sub
                0x4a056818      0x1a0 arch/arm/cpu/armv7/start.o
 .rel.u_boot_list_2_cmd_2_itest
                0x4a0569b8       0x20 arch/arm/cpu/armv7/start.o
 .rel.u_boot_list_2_cmd_2_loadb
                0x4a0569d8       0x20 arch/arm/cpu/armv7/start.o
 .rel.u_boot_list_2_cmd_2_loadx
                0x4a0569f8       0x20 arch/arm/cpu/armv7/start.o
 .rel.u_boot_list_2_cmd_2_loady
                0x4a056a18       0x20 arch/arm/cpu/armv7/start.o
 .rel.u_boot_list_2_cmd_2_loads
                0x4a056a38       0x20 arch/arm/cpu/armv7/start.o
 .rel.u_boot_list_2_cmd_2_base
                0x4a056a58       0x20 arch/arm/cpu/armv7/start.o
 .rel.u_boot_list_2_cmd_2_cmp
                0x4a056a78       0x20 arch/arm/cpu/armv7/start.o
 .rel.u_boot_list_2_cmd_2_nm
                0x4a056a98       0x20 arch/arm/cpu/armv7/start.o
 .rel.u_boot_list_2_cmd_2_loop
                0x4a056ab8       0x20 arch/arm/cpu/armv7/start.o
 .rel.u_boot_list_2_cmd_2_cp
                0x4a056ad8       0x20 arch/arm/cpu/armv7/start.o
 .rel.u_boot_list_2_cmd_2_mm
                0x4a056af8       0x20 arch/arm/cpu/armv7/start.o
 .rel.u_boot_list_2_cmd_2_crc32
                0x4a056b18       0x20 arch/arm/cpu/armv7/start.o
 .rel.u_boot_list_2_cmd_2_md
                0x4a056b38       0x20 arch/arm/cpu/armv7/start.o
 .rel.u_boot_list_2_cmd_2_mw
                0x4a056b58       0x20 arch/arm/cpu/armv7/start.o
 .rel.u_boot_list_2_cmd_2_mii
                0x4a056b78       0x20 arch/arm/cpu/armv7/start.o
 .rel.u_boot_list_2_cmd_2_mdio
                0x4a056b98       0x20 arch/arm/cpu/armv7/start.o
 .rel.u_boot_list_2_cmd_2_sleep
                0x4a056bb8       0x20 arch/arm/cpu/armv7/start.o
 .rel.u_boot_list_2_cmd_2_mmcinfo
                0x4a056bd8       0x20 arch/arm/cpu/armv7/start.o
 .rel.data.cmd_mmc
                0x4a056bf8      0x140 arch/arm/cpu/armv7/start.o
 .rel.u_boot_list_2_cmd_2_mmc
                0x4a056d38       0x20 arch/arm/cpu/armv7/start.o
 .rel.u_boot_list_2_cmd_2_ping
                0x4a056d58       0x20 arch/arm/cpu/armv7/start.o
 .rel.u_boot_list_2_cmd_2_dhcp
                0x4a056d78       0x20 arch/arm/cpu/armv7/start.o
 .rel.u_boot_list_2_cmd_2_bootp
                0x4a056d98       0x20 arch/arm/cpu/armv7/start.o
 .rel.u_boot_list_2_cmd_2_tftpboot
                0x4a056db8       0x20 arch/arm/cpu/armv7/start.o
 .rel.u_boot_list_2_cmd_2_nfs
                0x4a056dd8       0x20 arch/arm/cpu/armv7/start.o
 .rel.u_boot_list_2_cmd_2_part
                0x4a056df8       0x20 arch/arm/cpu/armv7/start.o
 .rel.u_boot_list_2_cmd_2_pxe
                0x4a056e18       0x20 arch/arm/cpu/armv7/start.o
 .rel.data.cmd_pxe_sub
                0x4a056e38       0x40 arch/arm/cpu/armv7/start.o
 .rel.u_boot_list_2_cmd_2_sysboot
                0x4a056e78       0x20 arch/arm/cpu/armv7/start.o
 .rel.data.pxe_default_paths
                0x4a056e98       0x18 arch/arm/cpu/armv7/start.o
 .rel.u_boot_list_2_cmd_2_setexpr
                0x4a056eb0       0x20 arch/arm/cpu/armv7/start.o
 .rel.u_boot_list_2_cmd_2_test
                0x4a056ed0       0x20 arch/arm/cpu/armv7/start.o
 .rel.u_boot_list_2_cmd_2_true
                0x4a056ef0       0x18 arch/arm/cpu/armv7/start.o
 .rel.u_boot_list_2_cmd_2_false
                0x4a056f08       0x18 arch/arm/cpu/armv7/start.o
 .rel.u_boot_list_2_cmd_2_usb
                0x4a056f20       0x20 arch/arm/cpu/armv7/start.o
 .rel.u_boot_list_2_cmd_2_usbboot
                0x4a056f40       0x20 arch/arm/cpu/armv7/start.o
 .rel.u_boot_list_2_cmd_2_imxtract
                0x4a056f60       0x20 arch/arm/cpu/armv7/start.o
 .rel.u_boot_list_2_cmd_2_setenv
                0x4a056f80       0x28 arch/arm/cpu/armv7/start.o
 .rel.u_boot_list_2_cmd_2_env
                0x4a056fa8       0x20 arch/arm/cpu/armv7/start.o
 .rel.u_boot_list_2_cmd_2_saveenv
                0x4a056fc8       0x20 arch/arm/cpu/armv7/start.o
 .rel.data.cmd_env_sub
                0x4a056fe8      0x140 arch/arm/cpu/armv7/start.o
 .rel.u_boot_list_2_cmd_2_printenv
                0x4a057128       0x28 arch/arm/cpu/armv7/start.o
 .rel.u_boot_list_2_cmd_2_editenv
                0x4a057150       0x28 arch/arm/cpu/armv7/start.o
 .rel.u_boot_list_2_cmd_2_run
                0x4a057178       0x28 arch/arm/cpu/armv7/start.o
 .rel.text.main_loop
                0x4a0571a0        0x8 arch/arm/cpu/armv7/start.o
 .rel.text.jumptable_init
                0x4a0571a8       0xc8 arch/arm/cpu/armv7/start.o
 .rel.text.hash_lookup_algo
                0x00000000        0x0 arch/arm/cpu/armv7/start.o
 .rel.text.hash_progressive_lookup_algo
                0x00000000        0x0 arch/arm/cpu/armv7/start.o
 .rel.text.hash_command
                0x4a057270        0x8 arch/arm/cpu/armv7/start.o
 .rel.text.mapset
                0x4a057278        0x8 arch/arm/cpu/armv7/start.o
 .rel.text.syntax_err
                0x4a057280        0x8 arch/arm/cpu/armv7/start.o
 .rel.text.do_showvar
                0x4a057288       0x20 arch/arm/cpu/armv7/start.o
 .rel.text.b_addqchr
                0x4a0572a8        0x8 arch/arm/cpu/armv7/start.o
 .rel.text.is_assignment.part.0
                0x4a0572b0        0x8 arch/arm/cpu/armv7/start.o
 .rel.text.xmalloc
                0x4a0572b8        0x8 arch/arm/cpu/armv7/start.o
 .rel.text.file_get
                0x4a0572c0       0x30 arch/arm/cpu/armv7/start.o
 .rel.text.xrealloc
                0x4a0572f0        0x8 arch/arm/cpu/armv7/start.o
 .rel.text.done_word
                0x4a0572f8        0x8 arch/arm/cpu/armv7/start.o
 .rel.text.get_local_var
                0x4a057300       0x20 arch/arm/cpu/armv7/start.o
 .rel.text.set_local_var
                0x4a057320       0x20 arch/arm/cpu/armv7/start.o
 .rel.text.insert_var_value_sub
                0x4a057340        0x8 arch/arm/cpu/armv7/start.o
 .rel.text.unset_local_var
                0x00000000        0x0 arch/arm/cpu/armv7/start.o
 .rel.text.parse_string_outer
                0x4a057348       0x18 arch/arm/cpu/armv7/start.o
 .rel.text.run_list_real
                0x4a057360       0x48 arch/arm/cpu/armv7/start.o
 .rel.text.parse_stream_outer
                0x4a0573a8       0x68 arch/arm/cpu/armv7/start.o
 .rel.text.parse_file_outer
                0x4a057410       0x10 arch/arm/cpu/armv7/start.o
 .rel.text.u_boot_hush_start
                0x4a057420       0x18 arch/arm/cpu/armv7/start.o
 .rel.text.bootdelay_process
                0x4a057438       0x38 arch/arm/cpu/armv7/start.o
 .rel.text.autoboot_command
                0x4a057470       0x20 arch/arm/cpu/armv7/start.o
 .rel.text.setup_mon_len
                0x4a057490       0x10 arch/arm/cpu/armv7/start.o
 .rel.text.announce_dram_init
                0x4a0574a0        0x8 arch/arm/cpu/armv7/start.o
 .rel.text.init_func_i2c
                0x4a0574a8       0x10 arch/arm/cpu/armv7/start.o
 .rel.text.init_baud_rate
                0x4a0574b8        0x8 arch/arm/cpu/armv7/start.o
 .rel.text.show_dram_config
                0x4a0574c0        0x8 arch/arm/cpu/armv7/start.o
 .rel.text.board_init_f
                0x4a0574c8        0x8 arch/arm/cpu/armv7/start.o
 .rel.text.initr_net
                0x4a0574d0        0x8 arch/arm/cpu/armv7/start.o
 .rel.text.initr_ethaddr
                0x4a0574d8        0x8 arch/arm/cpu/armv7/start.o
 .rel.text.initr_env
                0x4a0574e0       0x20 arch/arm/cpu/armv7/start.o
 .rel.text.initr_mmc
                0x4a057500        0x8 arch/arm/cpu/armv7/start.o
 .rel.text.initr_reloc_global_data
                0x4a057508       0x18 arch/arm/cpu/armv7/start.o
 .rel.text.board_init_r
                0x4a057520        0x8 arch/arm/cpu/armv7/start.o
 .rel.text.show_board_info
                0x4a057528       0x10 arch/arm/cpu/armv7/start.o
 .rel.text.bootm_find_images
                0x4a057538       0x18 arch/arm/cpu/armv7/start.o
 .rel.text.bootm_decomp_image
                0x4a057550       0x48 arch/arm/cpu/armv7/start.o
 .rel.text.do_bootm_states
                0x4a057598       0xa8 arch/arm/cpu/armv7/start.o
 .rel.text.do_bootm_rtems
                0x4a057640        0x8 arch/arm/cpu/armv7/start.o
 .rel.text.do_bootm_plan9
                0x4a057648       0x18 arch/arm/cpu/armv7/start.o
 .rel.text.do_bootm_standalone
                0x4a057660       0x18 arch/arm/cpu/armv7/start.o
 .rel.text.do_bootm_qnxelf
                0x4a057678        0x8 arch/arm/cpu/armv7/start.o
 .rel.text.do_bootm_netbsd
                0x4a057680       0x18 arch/arm/cpu/armv7/start.o
 .rel.text.do_bootvx_fdt
                0x4a057698       0x38 arch/arm/cpu/armv7/start.o
 .rel.text.bootm_os_get_boot_func
                0x4a0576d0        0x8 arch/arm/cpu/armv7/start.o
 .rel.text.regex_callback
                0x4a0576d8       0x10 arch/arm/cpu/armv7/start.o
 .rel.text.env_attr_lookup
                0x4a0576e8        0x8 arch/arm/cpu/armv7/start.o
 .rel.text.on_callbacks
                0x4a0576f0       0x20 arch/arm/cpu/armv7/start.o
 .rel.text.find_env_callback
                0x4a057710       0x10 arch/arm/cpu/armv7/start.o
 .rel.text.set_callback
                0x4a057720        0x8 arch/arm/cpu/armv7/start.o
 .rel.text.env_callback_init
                0x4a057728       0x20 arch/arm/cpu/armv7/start.o
 .rel.text.skip_num
                0x4a057748        0x8 arch/arm/cpu/armv7/start.o
 .rel.text.on_flags
                0x4a057750       0x20 arch/arm/cpu/armv7/start.o
 .rel.text.env_flags_parse_vartype
                0x4a057770       0x10 arch/arm/cpu/armv7/start.o
 .rel.text.env_flags_parse_varaccess
                0x4a057780       0x10 arch/arm/cpu/armv7/start.o
 .rel.text.set_flags
                0x4a057790       0x10 arch/arm/cpu/armv7/start.o
 .rel.text.env_flags_parse_varaccess_from_binflags
                0x00000000        0x0 arch/arm/cpu/armv7/start.o
 .rel.text.env_flags_init
                0x4a0577a0       0x30 arch/arm/cpu/armv7/start.o
 .rel.text.env_flags_validate
                0x4a0577d0       0x68 arch/arm/cpu/armv7/start.o
 .rel.text.env_init
                0x4a057838        0x8 arch/arm/cpu/armv7/start.o
 .rel.text.saveenv
                0x4a057840       0x38 arch/arm/cpu/armv7/start.o
 .rel.text.env_relocate_spec
                0x4a057878       0x18 arch/arm/cpu/armv7/start.o
 .rel.text.of_bus_default_count_cells
                0x4a057890        0x8 arch/arm/cpu/armv7/start.o
 .rel.text.fdt_find_or_add_subnode
                0x4a057898       0x10 arch/arm/cpu/armv7/start.o
 .rel.text.fdt_root
                0x4a0578a8       0x20 arch/arm/cpu/armv7/start.o
 .rel.text.fdt_initrd
                0x4a0578c8       0x30 arch/arm/cpu/armv7/start.o
 .rel.text.fdt_chosen
                0x4a0578f8       0x30 arch/arm/cpu/armv7/start.o
 .rel.text.do_fixup_by_path
                0x4a057928        0x8 arch/arm/cpu/armv7/start.o
 .rel.text.fdt_fixup_memory_banks
                0x4a057930       0x38 arch/arm/cpu/armv7/start.o
 .rel.text.fdt_fixup_ethernet
                0x4a057968       0x30 arch/arm/cpu/armv7/start.o
 .rel.text.fdt_del_node_and_alias
                0x00000000        0x0 arch/arm/cpu/armv7/start.o
 .rel.text.fdt_translate_address
                0x4a057998       0x20 arch/arm/cpu/armv7/start.o
 .rel.text.fdt_node_offset_by_compat_reg
                0x00000000        0x0 arch/arm/cpu/armv7/start.o
 .rel.text.fdt_set_phandle
                0x00000000        0x0 arch/arm/cpu/armv7/start.o
 .rel.text.fdt_create_phandle
                0x00000000        0x0 arch/arm/cpu/armv7/start.o
 .rel.text.fdt_set_node_status
                0x00000000        0x0 arch/arm/cpu/armv7/start.o
 .rel.text.fdt_verify_alias_address
                0x00000000        0x0 arch/arm/cpu/armv7/start.o
 .rel.text.fdt_get_base_address
                0x00000000        0x0 arch/arm/cpu/armv7/start.o
 .rel.text.fdt_read_range
                0x00000000        0x0 arch/arm/cpu/armv7/start.o
 .rel.text.fdt_setup_simplefb_node
                0x00000000        0x0 arch/arm/cpu/armv7/start.o
 .rel.text.fdt_fixup_display
                0x00000000        0x0 arch/arm/cpu/armv7/start.o
 .rel.text.miiphy_get_dev_by_name
                0x4a0579b8       0x10 arch/arm/cpu/armv7/start.o
 .rel.text.miiphy_init
                0x4a0579c8       0x10 arch/arm/cpu/armv7/start.o
 .rel.text.mdio_register
                0x4a0579d8       0x18 arch/arm/cpu/armv7/start.o
 .rel.text.mdio_unregister
                0x00000000        0x0 arch/arm/cpu/armv7/start.o
 .rel.text.mdio_list_devices
                0x4a0579f0       0x28 arch/arm/cpu/armv7/start.o
 .rel.text.miiphy_set_current_dev
                0x4a057a18       0x10 arch/arm/cpu/armv7/start.o
 .rel.text.miiphy_get_active_dev
                0x4a057a28        0x8 arch/arm/cpu/armv7/start.o
 .rel.text.mdio_get_current_dev
                0x4a057a30        0x8 arch/arm/cpu/armv7/start.o
 .rel.text.mdio_phydev_for_ethname
                0x4a057a38       0x10 arch/arm/cpu/armv7/start.o
 .rel.text.miiphy_get_current_dev
                0x4a057a48        0x8 arch/arm/cpu/armv7/start.o
 .rel.text.miiphy_listdev
                0x4a057a50       0x30 arch/arm/cpu/armv7/start.o
 .rel.text.miiphy_speed
                0x4a057a80       0x20 arch/arm/cpu/armv7/start.o
 .rel.text.miiphy_duplex
                0x4a057aa0       0x20 arch/arm/cpu/armv7/start.o
 .rel.text.get_descriptor_len
                0x4a057ac0       0x10 arch/arm/cpu/armv7/start.o
 .rel.text.usb_string_sub
                0x4a057ad0        0x8 arch/arm/cpu/armv7/start.o
 .rel.text.usb_get_configuration_len
                0x4a057ad8       0x10 arch/arm/cpu/armv7/start.o
 .rel.text.usb_set_interface
                0x4a057ae8        0x8 arch/arm/cpu/armv7/start.o
 .rel.text.usb_select_config
                0x4a057af0       0x70 arch/arm/cpu/armv7/start.o
 .rel.text.usb_setup_device
                0x4a057b60       0x18 arch/arm/cpu/armv7/start.o
 .rel.text.usb_find_usb2_hub_address_port
                0x4a057b78        0x8 arch/arm/cpu/armv7/start.o
 .rel.text.usb_hub_reset
                0x4a057b80       0x10 arch/arm/cpu/armv7/start.o
 .rel.text.usb_hub_port_connect_change
                0x4a057b90        0x8 arch/arm/cpu/armv7/start.o
 .rel.text.usb_hub_configure
                0x4a057b98       0x40 arch/arm/cpu/armv7/start.o
 .rel.text.usb_stor_BBB_transport
                0x4a057bd8       0x10 arch/arm/cpu/armv7/start.o
 .rel.text.usb_stor_CB_comdat
                0x4a057be8        0x8 arch/arm/cpu/armv7/start.o
 .rel.text.usb_stor_write
                0x4a057bf0       0x10 arch/arm/cpu/armv7/start.o
 .rel.text.usb_stor_read
                0x4a057c00       0x10 arch/arm/cpu/armv7/start.o
 .rel.text.usb_stor_CBI_get_status.isra.2
                0x4a057c10       0x10 arch/arm/cpu/armv7/start.o
 .rel.text.usb_stor_CB_transport
                0x4a057c20       0x10 arch/arm/cpu/armv7/start.o
 .rel.text.usb_stor_info
                0x4a057c30       0x20 arch/arm/cpu/armv7/start.o
 .rel.text.usb_stor_reset
                0x4a057c50        0x8 arch/arm/cpu/armv7/start.o
 .rel.text.usb_storage_probe
                0x4a057c58       0x38 arch/arm/cpu/armv7/start.o
 .rel.text.usb_stor_get_info
                0x4a057c90       0x20 arch/arm/cpu/armv7/start.o
 .rel.text.usb_mass_storage_probe
                0x4a057cb0       0x30 arch/arm/cpu/armv7/start.o
 .rel.text.menu_get_choice
                0x4a057ce0       0x18 arch/arm/cpu/armv7/start.o
 .rel.text.env_get_addr
                0x4a057cf8        0x8 arch/arm/cpu/armv7/start.o
 .rel.text.env_get_char
                0x4a057d00        0x8 arch/arm/cpu/armv7/start.o
 .rel.text.set_default_env
                0x4a057d08       0x40 arch/arm/cpu/armv7/start.o
 .rel.text.set_default_vars
                0x4a057d48       0x10 arch/arm/cpu/armv7/start.o
 .rel.text.env_import
                0x4a057d58       0x38 arch/arm/cpu/armv7/start.o
 .rel.text.env_export
                0x4a057d90       0x28 arch/arm/cpu/armv7/start.o
 .rel.text.env_relocate
                0x4a057db8        0x8 arch/arm/cpu/armv7/start.o
 .rel.text.env_complete
                0x4a057dc0       0x18 arch/arm/cpu/armv7/start.o
 .rel.text.console_setfile
                0x4a057dd8       0x30 arch/arm/cpu/armv7/start.o
 .rel.text.fgetc
                0x4a057e08        0x8 arch/arm/cpu/armv7/start.o
 .rel.text.ftstc
                0x4a057e10        0x8 arch/arm/cpu/armv7/start.o
 .rel.text.fputc
                0x4a057e18        0x8 arch/arm/cpu/armv7/start.o
 .rel.text.fputs
                0x4a057e20        0x8 arch/arm/cpu/armv7/start.o
 .rel.text.print_pre_console_buffer
                0x4a057e28       0x10 arch/arm/cpu/armv7/start.o
 .rel.text.ctrlc
                0x4a057e38       0x10 arch/arm/cpu/armv7/start.o
 .rel.text.confirm_yesno
                0x00000000        0x0 arch/arm/cpu/armv7/start.o
 .rel.text.disable_ctrlc
                0x4a057e48        0x8 arch/arm/cpu/armv7/start.o
 .rel.text.had_ctrlc
                0x4a057e50        0x8 arch/arm/cpu/armv7/start.o
 .rel.text.clear_ctrlc
                0x4a057e58        0x8 arch/arm/cpu/armv7/start.o
 .rel.text.on_console
                0x4a057e60       0x20 arch/arm/cpu/armv7/start.o
 .rel.text.stdio_print_current_devices
                0x4a057e80       0x40 arch/arm/cpu/armv7/start.o
 .rel.text.console_init_r
                0x4a057ec0       0x48 arch/arm/cpu/armv7/start.o
 .rel.text.sbrk
                0x4a057f08       0x18 arch/arm/cpu/armv7/start.o
 .rel.text.mem_malloc_init
                0x4a057f20       0x18 arch/arm/cpu/armv7/start.o
 .rel.text.malloc_trim
                0x4a057f38       0x18 arch/arm/cpu/armv7/start.o
 .rel.text.free
                0x4a057f50       0x18 arch/arm/cpu/armv7/start.o
 .rel.text.malloc
                0x4a057f68       0x40 arch/arm/cpu/armv7/start.o
 .rel.text.realloc
                0x4a057fa8       0x10 arch/arm/cpu/armv7/start.o
 .rel.text.mallopt
                0x00000000        0x0 arch/arm/cpu/armv7/start.o
 .rel.text.on_loadaddr
                0x4a057fb8        0x8 arch/arm/cpu/armv7/start.o
 .rel.text.getenv_bootm_low
                0x4a057fc0        0x8 arch/arm/cpu/armv7/start.o
 .rel.text.getenv_bootm_size
                0x4a057fc8       0x10 arch/arm/cpu/armv7/start.o
 .rel.text.getenv_bootm_mapsize
                0x4a057fd8        0x8 arch/arm/cpu/armv7/start.o
 .rel.text.genimg_print_size
                0x4a057fe0       0x10 arch/arm/cpu/armv7/start.o
 .rel.text.genimg_get_short_name
                0x00000000        0x0 arch/arm/cpu/armv7/start.o
 .rel.text.genimg_get_cat_name
                0x00000000        0x0 arch/arm/cpu/armv7/start.o
 .rel.text.genimg_get_cat_short_name
                0x00000000        0x0 arch/arm/cpu/armv7/start.o
 .rel.text.genimg_get_cat_count
                0x00000000        0x0 arch/arm/cpu/armv7/start.o
 .rel.text.genimg_get_cat_desc
                0x00000000        0x0 arch/arm/cpu/armv7/start.o
 .rel.text.genimg_get_os_name
                0x4a057ff0       0x10 arch/arm/cpu/armv7/start.o
 .rel.text.genimg_get_arch_name
                0x4a058000       0x10 arch/arm/cpu/armv7/start.o
 .rel.text.genimg_get_type_name
                0x4a058010       0x10 arch/arm/cpu/armv7/start.o
 .rel.text.genimg_get_type_short_name
                0x00000000        0x0 arch/arm/cpu/armv7/start.o
 .rel.text.genimg_get_comp_name
                0x4a058020       0x10 arch/arm/cpu/armv7/start.o
 .rel.text.image_print_contents
                0x4a058030       0x50 arch/arm/cpu/armv7/start.o
 .rel.text.genimg_get_comp_short_name
                0x00000000        0x0 arch/arm/cpu/armv7/start.o
 .rel.text.genimg_get_os_short_name
                0x00000000        0x0 arch/arm/cpu/armv7/start.o
 .rel.text.genimg_get_arch_short_name
                0x00000000        0x0 arch/arm/cpu/armv7/start.o
 .rel.text.genimg_get_os_id
                0x00000000        0x0 arch/arm/cpu/armv7/start.o
 .rel.text.genimg_get_arch_id
                0x00000000        0x0 arch/arm/cpu/armv7/start.o
 .rel.text.genimg_get_type_id
                0x00000000        0x0 arch/arm/cpu/armv7/start.o
 .rel.text.genimg_get_comp_id
                0x00000000        0x0 arch/arm/cpu/armv7/start.o
 .rel.text.genimg_get_kernel_addr_fit
                0x4a058080        0x8 arch/arm/cpu/armv7/start.o
 .rel.text.boot_get_ramdisk
                0x4a058088       0x50 arch/arm/cpu/armv7/start.o
 .rel.text.boot_ramdisk_high
                0x4a0580d8       0x20 arch/arm/cpu/armv7/start.o
 .rel.text.fdt_error
                0x4a0580f8       0x10 arch/arm/cpu/armv7/start.o
 .rel.text.boot_fdt_add_mem_rsv_regions
                0x4a058108        0x8 arch/arm/cpu/armv7/start.o
 .rel.text.boot_relocate_fdt
                0x4a058110       0x40 arch/arm/cpu/armv7/start.o
 .rel.text.boot_get_fdt
                0x4a058150       0x80 arch/arm/cpu/armv7/start.o
 .rel.text.image_setup_libfdt
                0x4a0581d0       0x28 arch/arm/cpu/armv7/start.o
 .rel.text.stdio_get_list
                0x4a0581f8        0x8 arch/arm/cpu/armv7/start.o
 .rel.text.stdio_get_by_name
                0x4a058200        0x8 arch/arm/cpu/armv7/start.o
 .rel.text.stdio_register_dev
                0x4a058208        0x8 arch/arm/cpu/armv7/start.o
 .rel.text.stdio_init_tables
                0x4a058210        0x8 arch/arm/cpu/armv7/start.o
 .rel.text.stdio_add_devices
                0x4a058218       0x30 arch/arm/cpu/armv7/start.o
 .rel.text.stdio_init
                0x00000000        0x0 arch/arm/cpu/armv7/start.o
 .rel.text.cli_simple_parse_line
                0x00000000        0x0 arch/arm/cpu/armv7/start.o
 .rel.text.cli_simple_run_command
                0x00000000        0x0 arch/arm/cpu/armv7/start.o
 .rel.text.cli_simple_loop
                0x00000000        0x0 arch/arm/cpu/armv7/start.o
 .rel.text.do_run
                0x4a058248        0x8 arch/arm/cpu/armv7/start.o
 .rel.text.cli_process_fdt
                0x4a058250       0x10 arch/arm/cpu/armv7/start.o
 .rel.text.cli_secure_boot_cmd
                0x4a058260       0x18 arch/arm/cpu/armv7/start.o
 .rel.text.delete_char.part.0
                0x4a058278       0x10 arch/arm/cpu/armv7/start.o
 .rel.text.cread_add_char
                0x4a058288        0x8 arch/arm/cpu/armv7/start.o
 .rel.text.cli_readline_into_buffer
                0x4a058290      0x170 arch/arm/cpu/armv7/start.o
 .rel.text.cli_readline
                0x4a058400        0x8 arch/arm/cpu/armv7/start.o
 .rel.text.find_cmd
                0x4a058408       0x10 arch/arm/cpu/armv7/start.o
 .rel.text.cmd_usage
                0x4a058418       0x18 arch/arm/cpu/armv7/start.o
 .rel.text._do_help
                0x4a058430       0x10 arch/arm/cpu/armv7/start.o
 .rel.text.var_complete
                0x4a058440       0x10 arch/arm/cpu/armv7/start.o
 .rel.text.cmd_auto_complete
                0x4a058450       0x40 arch/arm/cpu/armv7/start.o
 .rel.text.cmd_get_data_size
                0x4a058490        0x8 arch/arm/cpu/armv7/start.o
 .rel.text.cmd_process
                0x4a058498       0x18 arch/arm/cpu/armv7/start.o
 .rel.text.cmd_process_error
                0x4a0584b0        0x8 arch/arm/cpu/armv7/start.o
 .rel.text.srec_decode
                0x4a0584b8       0x50 arch/arm/cpu/armv7/start.o
 .rel.text.xyzModem_get_hdr
                0x4a058508       0x28 arch/arm/cpu/armv7/start.o
 .rel.text.xyzModem_stream_open
                0x4a058530       0x10 arch/arm/cpu/armv7/start.o
 .rel.text.xyzModem_stream_read
                0x4a058540        0x8 arch/arm/cpu/armv7/start.o
 .rel.text.xyzModem_stream_close
                0x4a058548       0x20 arch/arm/cpu/armv7/start.o
 .rel.text.xyzModem_stream_terminate
                0x4a058568        0x8 arch/arm/cpu/armv7/start.o
 .rel.text.xyzModem_error
                0x4a058570       0x10 arch/arm/cpu/armv7/start.o
 .rel.rodata.boot_os
                0x4a058580       0x38 arch/arm/cpu/armv7/start.o
 .rel.rodata.usb_hub_ids
                0x4a0585b8        0x8 arch/arm/cpu/armv7/start.o
 .rel.rodata.usb_mass_storage_ids
                0x4a0585c0        0x8 arch/arm/cpu/armv7/start.o
 .rel.rodata.uimage_comp
                0x4a0585c8       0x70 arch/arm/cpu/armv7/start.o
 .rel.rodata.uimage_os
                0x4a058638       0xa0 arch/arm/cpu/armv7/start.o
 .rel.rodata.table_info
                0x00000000        0x0 arch/arm/cpu/armv7/start.o
 .rel.rodata.uimage_type
                0x4a0586d8      0x1d0 arch/arm/cpu/armv7/start.o
 .rel.rodata.uimage_arch
                0x4a0588a8      0x1a0 arch/arm/cpu/armv7/start.o
 .rel.rodata.CSWTCH.13
                0x4a058a48       0x40 arch/arm/cpu/armv7/start.o
 .rel.data.hash_algo
                0x00000000        0x0 arch/arm/cpu/armv7/start.o
 .rel.data.reserved_list
                0x4a058a88       0x58 arch/arm/cpu/armv7/start.o
 .rel.u_boot_list_2_cmd_2_showvar
                0x4a058ae0       0x20 arch/arm/cpu/armv7/start.o
 .rel.data.init_sequence_f
                0x4a058b00      0x130 arch/arm/cpu/armv7/start.o
 .rel.data.init_sequence_r
                0x4a058c30       0xe0 arch/arm/cpu/armv7/start.o
 .rel.u_boot_list_2_env_clbk_2_callbacks
                0x4a058d10       0x10 arch/arm/cpu/armv7/start.o
 .rel.u_boot_list_2_env_clbk_2_flags
                0x4a058d20       0x10 arch/arm/cpu/armv7/start.o
 .rel.data.env_name_spec
                0x4a058d30        0x8 arch/arm/cpu/armv7/start.o
 .rel.data.of_busses
                0x4a058d38       0x28 arch/arm/cpu/armv7/start.o
 .rel.u_boot_list_2_usb_driver_entry_2_usb_generic_hub
                0x4a058d60       0x10 arch/arm/cpu/armv7/start.o
 .rel.u_boot_list_2_uclass_2_usb_hub
                0x4a058d70       0x20 arch/arm/cpu/armv7/start.o
 .rel.u_boot_list_2_driver_2_usb_generic_hub
                0x4a058d90       0x10 arch/arm/cpu/armv7/start.o
 .rel.data.usb_scan_list
                0x4a058da0       0x10 arch/arm/cpu/armv7/start.o
 .rel.u_boot_list_2_driver_2_usb_mass_storage
                0x4a058db0       0x18 arch/arm/cpu/armv7/start.o
 .rel.u_boot_list_2_blk_driver_2_usb
                0x4a058dc8       0x10 arch/arm/cpu/armv7/start.o
 .rel.u_boot_list_2_usb_driver_entry_2_usb_mass_storage
                0x4a058dd8       0x10 arch/arm/cpu/armv7/start.o
 .rel.u_boot_list_2_uclass_2_usb_mass_storage
                0x4a058de8        0x8 arch/arm/cpu/armv7/start.o
 .rel.data.env_htab
                0x4a058df0        0x8 arch/arm/cpu/armv7/start.o
 .rel.u_boot_list_2_env_clbk_2_console
                0x4a058df8       0x10 arch/arm/cpu/armv7/start.o
 .rel.data.av_  0x4a058e08      0x800 arch/arm/cpu/armv7/start.o
 .rel.u_boot_list_2_env_clbk_2_loadaddr
                0x4a059608       0x10 arch/arm/cpu/armv7/start.o
 .rel.data.stdio_names
                0x4a059618       0x18 arch/arm/cpu/armv7/start.o
 .rel.text.part_driver_lookup_type
                0x4a059630       0x10 arch/arm/cpu/armv7/start.o
 .rel.text.dev_print
                0x4a059640      0x110 arch/arm/cpu/armv7/start.o
 .rel.text.part_init
                0x4a059750       0x10 arch/arm/cpu/armv7/start.o
 .rel.text.part_print
                0x4a059760       0xa8 arch/arm/cpu/armv7/start.o
 .rel.text.blk_get_device_by_str
                0x4a059808       0x18 arch/arm/cpu/armv7/start.o
 .rel.text.blk_get_device_part_str
                0x4a059820       0x60 arch/arm/cpu/armv7/start.o
 .rel.text.test_block_type
                0x4a059880       0x10 arch/arm/cpu/armv7/start.o
 .rel.text.print_partition_extended
                0x4a059890       0x30 arch/arm/cpu/armv7/start.o
 .rel.text.part_print_dos
                0x4a0598c0        0x8 arch/arm/cpu/armv7/start.o
 .rel.text.part_get_info_extended
                0x4a0598c8       0x88 arch/arm/cpu/armv7/start.o
 .rel.text.part_get_info_iso_verb
                0x4a059950       0xf8 arch/arm/cpu/armv7/start.o
 .rel.text.part_print_iso
                0x4a059a48       0x18 arch/arm/cpu/armv7/start.o
 .rel.text.print_efiname
                0x4a059a60       0x10 arch/arm/cpu/armv7/start.o
 .rel.text.validate_gpt_entries
                0x4a059a70       0x10 arch/arm/cpu/armv7/start.o
 .rel.text.validate_gpt_header
                0x4a059a80       0x30 arch/arm/cpu/armv7/start.o
 .rel.text.set_protective_mbr
                0x00000000        0x0 arch/arm/cpu/armv7/start.o
 .rel.text.is_gpt_valid
                0x4a059ab0       0x38 arch/arm/cpu/armv7/start.o
 .rel.text.is_pte_valid
                0x4a059ae8       0x10 arch/arm/cpu/armv7/start.o
 .rel.text.part_get_info_efi
                0x4a059af8       0x40 arch/arm/cpu/armv7/start.o
 .rel.text.part_print_efi
                0x4a059b38       0x60 arch/arm/cpu/armv7/start.o
 .rel.text.write_gpt_table
                0x00000000        0x0 arch/arm/cpu/armv7/start.o
 .rel.text.gpt_fill_pte
                0x00000000        0x0 arch/arm/cpu/armv7/start.o
 .rel.text.gpt_restore
                0x00000000        0x0 arch/arm/cpu/armv7/start.o
 .rel.text.gpt_verify_headers
                0x00000000        0x0 arch/arm/cpu/armv7/start.o
 .rel.text.gpt_verify_partitions
                0x00000000        0x0 arch/arm/cpu/armv7/start.o
 .rel.text.write_mbr_and_gpt_partitions
                0x00000000        0x0 arch/arm/cpu/armv7/start.o
 .rel.u_boot_list_2_part_driver_2_dos
                0x4a059b98       0x20 arch/arm/cpu/armv7/start.o
 .rel.u_boot_list_2_part_driver_2_iso
                0x4a059bb8       0x20 arch/arm/cpu/armv7/start.o
 .rel.u_boot_list_2_part_driver_2_a_efi
                0x4a059bd8       0x20 arch/arm/cpu/armv7/start.o
 .rel.text.device_bind_common.isra.5
                0x4a059bf8       0x10 arch/arm/cpu/armv7/start.o
 .rel.text.device_probe
                0x4a059c08       0x10 arch/arm/cpu/armv7/start.o
 .rel.text.dev_get_platdata
                0x4a059c18       0x10 arch/arm/cpu/armv7/start.o
 .rel.text.dev_get_parent_platdata
                0x4a059c28       0x10 arch/arm/cpu/armv7/start.o
 .rel.text.dev_get_uclass_platdata
                0x4a059c38       0x10 arch/arm/cpu/armv7/start.o
 .rel.text.dev_get_priv
                0x4a059c48       0x10 arch/arm/cpu/armv7/start.o
 .rel.text.dev_get_uclass_priv
                0x4a059c58       0x10 arch/arm/cpu/armv7/start.o
 .rel.text.dev_get_parent_priv
                0x4a059c68       0x10 arch/arm/cpu/armv7/start.o
 .rel.text.dev_get_addr_index
                0x4a059c78        0x8 arch/arm/cpu/armv7/start.o
 .rel.text.dev_get_addr_name
                0x4a059c80        0x8 arch/arm/cpu/armv7/start.o
 .rel.text.lists_driver_lookup_name
                0x4a059c88       0x10 arch/arm/cpu/armv7/start.o
 .rel.text.lists_uclass_lookup
                0x4a059c98       0x10 arch/arm/cpu/armv7/start.o
 .rel.text.lists_bind_drivers
                0x4a059ca8       0x18 arch/arm/cpu/armv7/start.o
 .rel.text.lists_bind_fdt
                0x4a059cc0       0x20 arch/arm/cpu/armv7/start.o
 .rel.text.dm_root
                0x4a059ce0        0x8 arch/arm/cpu/armv7/start.o
 .rel.text.dm_init
                0x4a059ce8       0x10 arch/arm/cpu/armv7/start.o
 .rel.text.dm_scan_platdata
                0x4a059cf8        0x8 arch/arm/cpu/armv7/start.o
 .rel.text.dm_scan_fdt_node
                0x4a059d00       0x10 arch/arm/cpu/armv7/start.o
 .rel.text.uclass_resolve_seq
                0x4a059d10        0x8 arch/arm/cpu/armv7/start.o
 .rel.text.device_remove
                0x4a059d18       0x20 arch/arm/cpu/armv7/start.o
 .rel.text.simple_bus_post_bind
                0x4a059d38        0x8 arch/arm/cpu/armv7/start.o
 .rel.text.show_devices
                0x4a059d40       0x30 arch/arm/cpu/armv7/start.o
 .rel.text.dm_dump_all
                0x4a059d70       0x10 arch/arm/cpu/armv7/start.o
 .rel.text.dm_dump_uclass
                0x4a059d80       0x20 arch/arm/cpu/armv7/start.o
 .rel.text.blk_driver_lookup_type
                0x4a059da0       0x10 arch/arm/cpu/armv7/start.o
 .rel.text.blk_list_devices
                0x00000000        0x0 arch/arm/cpu/armv7/start.o
 .rel.text.blk_print_device_num
                0x00000000        0x0 arch/arm/cpu/armv7/start.o
 .rel.text.blk_show_device
                0x00000000        0x0 arch/arm/cpu/armv7/start.o
 .rel.text.blk_get_devnum_by_typename
                0x4a059db0       0x10 arch/arm/cpu/armv7/start.o
 .rel.text.keyboard_pre_probe
                0x4a059dc0       0x20 arch/arm/cpu/armv7/start.o
 .rel.text._input_send_keycodes
                0x00000000        0x0 arch/arm/cpu/armv7/start.o
 .rel.text.input_add_tables
                0x00000000        0x0 arch/arm/cpu/armv7/start.o
 .rel.text.input_stdio_register
                0x00000000        0x0 arch/arm/cpu/armv7/start.o
 .rel.text.key_matrix_decode_fdt
                0x00000000        0x0 arch/arm/cpu/armv7/start.o
 .rel.rodata.root_info
                0x4a059de0        0x8 arch/arm/cpu/armv7/start.o
 .rel.rodata.generic_simple_bus_ids
                0x4a059de8       0x10 arch/arm/cpu/armv7/start.o
 .rel.rodata.kbd_to_ansi364
                0x00000000        0x0 arch/arm/cpu/armv7/start.o
 .rel.u_boot_list_2_driver_2_root_driver
                0x4a059df8        0x8 arch/arm/cpu/armv7/start.o
 .rel.u_boot_list_2_uclass_2_root
                0x4a059e00        0x8 arch/arm/cpu/armv7/start.o
 .rel.u_boot_list_2_uclass_2_simple_bus
                0x4a059e08       0x10 arch/arm/cpu/armv7/start.o
 .rel.u_boot_list_2_driver_2_simple_bus_drv
                0x4a059e18       0x10 arch/arm/cpu/armv7/start.o
 .rel.u_boot_list_2_uclass_2_keyboard
                0x4a059e28       0x10 arch/arm/cpu/armv7/start.o
 .rel.data.kbd_entry
                0x00000000        0x0 arch/arm/cpu/armv7/start.o
 .rel.text.check_reserved
                0x4a059e38       0x10 arch/arm/cpu/armv7/start.o
 .rel.text.dm_gpio_lookup_name
                0x4a059e48        0x8 arch/arm/cpu/armv7/start.o
 .rel.text.gpio_direction_input
                0x4a059e50        0x8 arch/arm/cpu/armv7/start.o
 .rel.text.gpio_direction_output
                0x4a059e58        0x8 arch/arm/cpu/armv7/start.o
 .rel.text.dm_gpio_get_value
                0x4a059e60        0x8 arch/arm/cpu/armv7/start.o
 .rel.text.dm_gpio_set_value
                0x4a059e68        0x8 arch/arm/cpu/armv7/start.o
 .rel.text.dm_gpio_get_open_drain
                0x00000000        0x0 arch/arm/cpu/armv7/start.o
 .rel.text.dm_gpio_set_open_drain
                0x00000000        0x0 arch/arm/cpu/armv7/start.o
 .rel.text.dm_gpio_set_dir_flags
                0x00000000        0x0 arch/arm/cpu/armv7/start.o
 .rel.text._gpio_request_by_name_nodev
                0x00000000        0x0 arch/arm/cpu/armv7/start.o
 .rel.text.gpio_get_status
                0x4a059e70       0x28 arch/arm/cpu/armv7/start.o
 .rel.text.gpio_get_list_count
                0x00000000        0x0 arch/arm/cpu/armv7/start.o
 .rel.rodata.gpio_function
                0x4a059e98       0x28 arch/arm/cpu/armv7/start.o
 .rel.rodata.sunxi_gpio_ids
                0x4a059ec0      0x100 arch/arm/cpu/armv7/start.o
 .rel.rodata.gpio_sunxi_ops
                0x4a059fc0       0x30 arch/arm/cpu/armv7/start.o
 .rel.u_boot_list_2_uclass_2_gpio
                0x4a059ff0       0x18 arch/arm/cpu/armv7/start.o
 .rel.u_boot_list_2_driver_2_gpio_sunxi
                0x4a05a008       0x28 arch/arm/cpu/armv7/start.o
 .rel.text.i2c_get_adapter
                0x4a05a030       0x18 arch/arm/cpu/armv7/start.o
 .rel.text.i2c_init_bus
                0x4a05a048       0x10 arch/arm/cpu/armv7/start.o
 .rel.text.i2c_set_bus_num
                0x4a05a058       0x18 arch/arm/cpu/armv7/start.o
 .rel.text.twsi_get_base
                0x4a05a070        0x8 arch/arm/cpu/armv7/start.o
 .rel.u_boot_list_2_i2c_2_twsi5
                0x4a05a078       0x30 arch/arm/cpu/armv7/start.o
 .rel.text.find_mmc_device
                0x4a05a0a8       0x10 arch/arm/cpu/armv7/start.o
 .rel.text.mmc_get_next_devnum
                0x4a05a0b8        0x8 arch/arm/cpu/armv7/start.o
 .rel.text.get_mmc_num
                0x4a05a0c0        0x8 arch/arm/cpu/armv7/start.o
 .rel.text.mmc_do_preinit
                0x4a05a0c8        0x8 arch/arm/cpu/armv7/start.o
 .rel.text.mmc_list_init
                0x4a05a0d0       0x10 arch/arm/cpu/armv7/start.o
 .rel.text.mmc_list_add
                0x4a05a0e0        0x8 arch/arm/cpu/armv7/start.o
 .rel.text.print_mmc_devices
                0x4a05a0e8       0x40 arch/arm/cpu/armv7/start.o
 .rel.text.mmc_create
                0x4a05a128       0x18 arch/arm/cpu/armv7/start.o
 .rel.text.mmc_set_capacity
                0x4a05a140       0x40 arch/arm/cpu/armv7/start.o
 .rel.text.mmc_send_status
                0x4a05a180       0x10 arch/arm/cpu/armv7/start.o
 .rel.text.mmc_bread
                0x4a05a190       0x10 arch/arm/cpu/armv7/start.o
 .rel.text.mmc_hwpart_config
                0x4a05a1a0       0x48 arch/arm/cpu/armv7/start.o
 .rel.text.mmc_startup
                0x4a05a1e8       0xb0 arch/arm/cpu/armv7/start.o
 .rel.text.mmc_start_init
                0x4a05a298       0x10 arch/arm/cpu/armv7/start.o
 .rel.text.mmc_initialize
                0x4a05a2a8        0x8 arch/arm/cpu/armv7/start.o
 .rel.text.sunxi_mmc_getcd_gpio
                0x4a05a2b0       0x30 arch/arm/cpu/armv7/start.o
 .rel.text.mmc_set_mod_clk
                0x4a05a2e0        0x8 arch/arm/cpu/armv7/start.o
 .rel.text.sunxi_mmc_init
                0x4a05a2e8       0x48 arch/arm/cpu/armv7/start.o
 .rel.text.mmc_berase
                0x4a05a330       0x10 arch/arm/cpu/armv7/start.o
 .rel.text.mmc_bwrite
                0x4a05a340       0x18 arch/arm/cpu/armv7/start.o
 .rel.rodata.sunxi_mmc_ops
                0x4a05a358       0x20 arch/arm/cpu/armv7/start.o
 .rel.u_boot_list_2_blk_driver_2_mmc
                0x4a05a378       0x18 arch/arm/cpu/armv7/start.o
 .rel.text.sun8i_emac_eth_recv
                0x4a05a390        0x8 arch/arm/cpu/armv7/start.o
 .rel.text.sun8i_emac_eth_start
                0x4a05a398       0x10 arch/arm/cpu/armv7/start.o
 .rel.text.sun8i_emac_eth_ofdata_to_platdata
                0x4a05a3a8       0x78 arch/arm/cpu/armv7/start.o
 .rel.text.sun8i_emac_eth_probe
                0x4a05a420       0x10 arch/arm/cpu/armv7/start.o
 .rel.rodata.sun8i_emac_eth_ops
                0x4a05a430       0x30 arch/arm/cpu/armv7/start.o
 .rel.rodata.sun8i_emac_eth_ids
                0x4a05a460       0x18 arch/arm/cpu/armv7/start.o
 .rel.u_boot_list_2_driver_2_eth_sun8i_emac
                0x4a05a478       0x28 arch/arm/cpu/armv7/start.o
 .rel.text.genphy_update_link
                0x4a05a4a0       0x28 arch/arm/cpu/armv7/start.o
 .rel.text.phy_register
                0x00000000        0x0 arch/arm/cpu/armv7/start.o
 .rel.text.get_phy_device_by_mask
                0x4a05a4c8       0x18 arch/arm/cpu/armv7/start.o
 .rel.text.phy_reset
                0x4a05a4e0        0x8 arch/arm/cpu/armv7/start.o
 .rel.text.phy_connect_dev
                0x4a05a4e8        0x8 arch/arm/cpu/armv7/start.o
 .rel.text.phy_connect
                0x4a05a4f0        0x8 arch/arm/cpu/armv7/start.o
 .rel.text.phy_get_interface_by_name
                0x4a05a4f8        0x8 arch/arm/cpu/armv7/start.o
 .rel.rodata.phy_interface_strings
                0x4a05a500       0x70 arch/arm/cpu/armv7/start.o
 .rel.data.genphy_driver
                0x4a05a570       0x20 arch/arm/cpu/armv7/start.o
 .rel.data.phy_drivers
                0x4a05a590       0x10 arch/arm/cpu/armv7/start.o
 .rel.text.serial_post_probe
                0x4a05a5a0       0x20 arch/arm/cpu/armv7/start.o
 .rel.text.serial_init
                0x4a05a5c0       0x18 arch/arm/cpu/armv7/start.o
 .rel.text.on_baudrate
                0x4a05a5d8       0x20 arch/arm/cpu/armv7/start.o
 .rel.text.ns16550_serial_ofdata_to_platdata
                0x4a05a5f8       0x18 arch/arm/cpu/armv7/start.o
 .rel.rodata.ns16550_serial_ops
                0x4a05a610       0x20 arch/arm/cpu/armv7/start.o
 .rel.rodata.ns16550_serial_ids
                0x4a05a630       0x50 arch/arm/cpu/armv7/start.o
 .rel.u_boot_list_2_env_clbk_2_baudrate
                0x4a05a680       0x10 arch/arm/cpu/armv7/start.o
 .rel.u_boot_list_2_uclass_2_serial
                0x4a05a690       0x18 arch/arm/cpu/armv7/start.o
 .rel.u_boot_list_2_driver_2_ns16550_serial
                0x4a05a6a8       0x28 arch/arm/cpu/armv7/start.o
 .rel.text.spi_set_wordlen
                0x00000000        0x0 arch/arm/cpu/armv7/start.o
 .rel.text.usb_get_dr_mode
                0x00000000        0x0 arch/arm/cpu/armv7/start.o
 .rel.rodata.usb_dr_modes
                0x00000000        0x0 arch/arm/cpu/armv7/start.o
 .rel.text.usb_child_post_bind
                0x4a05a6d0       0x10 arch/arm/cpu/armv7/start.o
 .rel.text.usb_disable_asynch
                0x4a05a6e0        0x8 arch/arm/cpu/armv7/start.o
 .rel.text.usb_stop
                0x4a05a6e8        0x8 arch/arm/cpu/armv7/start.o
 .rel.text.usb_scan_device
                0x4a05a6f0       0x20 arch/arm/cpu/armv7/start.o
 .rel.text.usb_scan_bus.isra.2
                0x4a05a710       0x20 arch/arm/cpu/armv7/start.o
 .rel.text.usb_init
                0x4a05a730       0x38 arch/arm/cpu/armv7/start.o
 .rel.text.hc_reset
                0x4a05a768       0x10 arch/arm/cpu/armv7/start.o
 .rel.text.hc_interrupt
                0x4a05a778       0x30 arch/arm/cpu/armv7/start.o
 .rel.text.ohci_get_ohci_dev
                0x4a05a7a8        0x8 arch/arm/cpu/armv7/start.o
 .rel.text.td_fill.isra.4
                0x4a05a7b0        0x8 arch/arm/cpu/armv7/start.o
 .rel.text.sohci_submit_job
                0x4a05a7b8       0x28 arch/arm/cpu/armv7/start.o
 .rel.text.ohci_create_int_queue
                0x4a05a7e0       0x18 arch/arm/cpu/armv7/start.o
 .rel.text.submit_common_msg
                0x4a05a7f8       0x20 arch/arm/cpu/armv7/start.o
 .rel.text.ohci_submit_control_msg
                0x4a05a818      0x108 arch/arm/cpu/armv7/start.o
 .rel.text.ohci_register
                0x4a05a920        0x8 arch/arm/cpu/armv7/start.o
 .rel.text.ehci_td_buffer
                0x4a05a928        0x8 arch/arm/cpu/armv7/start.o
 .rel.text.ehci_submit_async
                0x4a05a930       0x30 arch/arm/cpu/armv7/start.o
 .rel.text.ehci_shutdown
                0x4a05a960        0x8 arch/arm/cpu/armv7/start.o
 .rel.text.disable_periodic
                0x4a05a968        0x8 arch/arm/cpu/armv7/start.o
 .rel.text.enable_periodic
                0x4a05a970        0x8 arch/arm/cpu/armv7/start.o
 .rel.text._ehci_destroy_int_queue
                0x4a05a978        0x8 arch/arm/cpu/armv7/start.o
 .rel.text._ehci_create_int_queue.isra.2
                0x4a05a980       0x10 arch/arm/cpu/armv7/start.o
 .rel.text.ehci_submit_int_msg
                0x4a05a990        0x8 arch/arm/cpu/armv7/start.o
 .rel.text.ehci_submit_control_msg
                0x4a05a998       0x28 arch/arm/cpu/armv7/start.o
 .rel.text.ehci_register
                0x4a05a9c0       0x38 arch/arm/cpu/armv7/start.o
 .rel.rodata.cc_to_string
                0x4a05a9f8       0x80 arch/arm/cpu/armv7/start.o
 .rel.rodata.ohci_usb_ids
                0x4a05aa78       0x40 arch/arm/cpu/armv7/start.o
 .rel.rodata.default_ehci_ops
                0x00000000        0x0 arch/arm/cpu/armv7/start.o
 .rel.rodata.ehci_usb_ids
                0x4a05aab8       0x40 arch/arm/cpu/armv7/start.o
 .rel.u_boot_list_2_uclass_2_usb_dev_generic
                0x4a05aaf8        0x8 arch/arm/cpu/armv7/start.o
 .rel.u_boot_list_2_driver_2_usb_dev_generic_drv
                0x4a05ab00        0x8 arch/arm/cpu/armv7/start.o
 .rel.u_boot_list_2_uclass_2_usb
                0x4a05ab08       0x20 arch/arm/cpu/armv7/start.o
 .rel.data.ohci_usb_ops
                0x4a05ab28       0x30 arch/arm/cpu/armv7/start.o
 .rel.u_boot_list_2_driver_2_usb_ohci
                0x4a05ab58       0x28 arch/arm/cpu/armv7/start.o
 .rel.data.ehci_usb_ops
                0x4a05ab80       0x30 arch/arm/cpu/armv7/start.o
 .rel.u_boot_list_2_driver_2_ehci_sunxi
                0x4a05abb0       0x28 arch/arm/cpu/armv7/start.o
 .rel.text.fs_probe_unsupported
                0x4a05abd8        0x8 arch/arm/cpu/armv7/start.o
 .rel.text.fs_get_info
                0x4a05abe0        0x8 arch/arm/cpu/armv7/start.o
 .rel.text.fs_close
                0x4a05abe8        0x8 arch/arm/cpu/armv7/start.o
 .rel.text.fs_set_blk_dev
                0x4a05abf0       0x20 arch/arm/cpu/armv7/start.o
 .rel.text.fs_uuid
                0x00000000        0x0 arch/arm/cpu/armv7/start.o
 .rel.text.fs_ls
                0x4a05ac10        0x8 arch/arm/cpu/armv7/start.o
 .rel.text.fs_exists
                0x4a05ac18        0x8 arch/arm/cpu/armv7/start.o
 .rel.text.fs_size
                0x4a05ac20        0x8 arch/arm/cpu/armv7/start.o
 .rel.text.fs_read
                0x4a05ac28       0x10 arch/arm/cpu/armv7/start.o
 .rel.text.fs_write
                0x4a05ac38       0x10 arch/arm/cpu/armv7/start.o
 .rel.text.do_size
                0x4a05ac48        0x8 arch/arm/cpu/armv7/start.o
 .rel.text.do_load
                0x4a05ac50       0x50 arch/arm/cpu/armv7/start.o
 .rel.text.do_ls
                0x4a05aca0        0x8 arch/arm/cpu/armv7/start.o
 .rel.text.do_save
                0x4a05aca8       0x28 arch/arm/cpu/armv7/start.o
 .rel.text.do_fs_uuid
                0x00000000        0x0 arch/arm/cpu/armv7/start.o
 .rel.text.do_fs_type
                0x4a05acd0       0x10 arch/arm/cpu/armv7/start.o
 .rel.text.get_fs
                0x4a05ace0        0x8 arch/arm/cpu/armv7/start.o
 .rel.text.ext4fs_free_node
                0x4a05ace8        0x8 arch/arm/cpu/armv7/start.o
 .rel.text.ext4fs_read_file
                0x4a05acf0        0x8 arch/arm/cpu/armv7/start.o
 .rel.text.ext4fs_ls
                0x4a05acf8       0x10 arch/arm/cpu/armv7/start.o
 .rel.text.ext4fs_read
                0x4a05ad08       0x10 arch/arm/cpu/armv7/start.o
 .rel.text.ext4_read_file
                0x4a05ad18       0x10 arch/arm/cpu/armv7/start.o
 .rel.text.ext4fs_uuid
                0x4a05ad28        0x8 arch/arm/cpu/armv7/start.o
 .rel.text.read_allocated_block
                0x4a05ad30       0xb8 arch/arm/cpu/armv7/start.o
 .rel.text.ext4fs_reinit_global
                0x4a05ade8       0x48 arch/arm/cpu/armv7/start.o
 .rel.text.ext4fs_close
                0x4a05ae30       0x10 arch/arm/cpu/armv7/start.o
 .rel.text.ext4fs_iterate_dir
                0x4a05ae40       0x30 arch/arm/cpu/armv7/start.o
 .rel.text.ext4fs_find_file1
                0x4a05ae70       0x10 arch/arm/cpu/armv7/start.o
 .rel.text.ext4fs_find_file
                0x4a05ae80        0x8 arch/arm/cpu/armv7/start.o
 .rel.text.ext4fs_open
                0x4a05ae88       0x10 arch/arm/cpu/armv7/start.o
 .rel.text.ext4fs_mount
                0x4a05ae98       0x18 arch/arm/cpu/armv7/start.o
 .rel.text.ext4fs_set_blk_dev
                0x4a05aeb0       0x18 arch/arm/cpu/armv7/start.o
 .rel.text.ext4fs_devread
                0x4a05aec8       0x40 arch/arm/cpu/armv7/start.o
 .rel.text.downcase
                0x4a05af08        0x8 arch/arm/cpu/armv7/start.o
 .rel.text.disk_read
                0x4a05af10       0x10 arch/arm/cpu/armv7/start.o
 .rel.text.read_bootsectandvi
                0x4a05af20       0x20 arch/arm/cpu/armv7/start.o
 .rel.text.get_cluster
                0x4a05af40        0x8 arch/arm/cpu/armv7/start.o
 .rel.text.set_name
                0x4a05af48        0x8 arch/arm/cpu/armv7/start.o
 .rel.text.check_overflow
                0x4a05af50       0x10 arch/arm/cpu/armv7/start.o
 .rel.text.get_vfatname
                0x4a05af60       0x10 arch/arm/cpu/armv7/start.o
 .rel.text.disk_write
                0x4a05af70       0x20 arch/arm/cpu/armv7/start.o
 .rel.text.flush_fat_buffer
                0x4a05af90        0x8 arch/arm/cpu/armv7/start.o
 .rel.text.set_cluster
                0x4a05af98        0x8 arch/arm/cpu/armv7/start.o
 .rel.text.get_fatent_value
                0x4a05afa0        0x8 arch/arm/cpu/armv7/start.o
 .rel.text.flush_dir_table.constprop.13
                0x4a05afa8       0x20 arch/arm/cpu/armv7/start.o
 .rel.text.do_fat_write
                0x4a05afc8       0x80 arch/arm/cpu/armv7/start.o
 .rel.text.fat_set_blk_dev
                0x4a05b048       0x28 arch/arm/cpu/armv7/start.o
 .rel.text.fat_register_device
                0x00000000        0x0 arch/arm/cpu/armv7/start.o
 .rel.text.do_fat_read_at
                0x4a05b070       0x58 arch/arm/cpu/armv7/start.o
 .rel.text.file_fat_detectfs
                0x4a05b0c8       0xb0 arch/arm/cpu/armv7/start.o
 .rel.text.file_fat_read_at
                0x4a05b178        0x8 arch/arm/cpu/armv7/start.o
 .rel.text.fat_read_file
                0x4a05b180        0x8 arch/arm/cpu/armv7/start.o
 .rel.text.file_fat_write
                0x4a05b188       0x10 arch/arm/cpu/armv7/start.o
 .rel.text.file_getfsname
                0x00000000        0x0 arch/arm/cpu/armv7/start.o
 .rel.text.file_cd
                0x00000000        0x0 arch/arm/cpu/armv7/start.o
 .rel.text.file_detectfs
                0x00000000        0x0 arch/arm/cpu/armv7/start.o
 .rel.text.file_ls
                0x00000000        0x0 arch/arm/cpu/armv7/start.o
 .rel.text.file_read
                0x00000000        0x0 arch/arm/cpu/armv7/start.o
 .rel.rodata.filesystems
                0x00000000        0x0 arch/arm/cpu/armv7/start.o
 .rel.data.fstypes
                0x4a05b198       0xd8 arch/arm/cpu/armv7/start.o
 .rel.text.efi_load_pe
                0x4a05b270       0x88 arch/arm/cpu/armv7/start.o
 .rel.text.efi_save_gd
                0x4a05b2f8        0x8 arch/arm/cpu/armv7/start.o
 .rel.text.efi_restore_gd
                0x4a05b300       0x10 arch/arm/cpu/armv7/start.o
 .rel.text.efi_calculate_crc32
                0x4a05b310        0x8 arch/arm/cpu/armv7/start.o
 .rel.text.efi_uninstall_multiple_protocol_interfaces
                0x4a05b318        0x8 arch/arm/cpu/armv7/start.o
 .rel.text.efi_install_multiple_protocol_interfaces
                0x4a05b320        0x8 arch/arm/cpu/armv7/start.o
 .rel.text.efi_locate_protocol
                0x4a05b328       0x10 arch/arm/cpu/armv7/start.o
 .rel.text.efi_locate_handle_buffer
                0x4a05b338        0x8 arch/arm/cpu/armv7/start.o
 .rel.text.efi_protocols_per_handle
                0x4a05b340        0x8 arch/arm/cpu/armv7/start.o
 .rel.text.efi_open_protocol_information
                0x4a05b348        0x8 arch/arm/cpu/armv7/start.o
 .rel.text.efi_close_protocol
                0x4a05b350        0x8 arch/arm/cpu/armv7/start.o
 .rel.text.efi_open_protocol
                0x4a05b358       0x10 arch/arm/cpu/armv7/start.o
 .rel.text.efi_disconnect_controller
                0x4a05b368        0x8 arch/arm/cpu/armv7/start.o
 .rel.text.efi_connect_controller
                0x4a05b370        0x8 arch/arm/cpu/armv7/start.o
 .rel.text.efi_set_watchdog_timer
                0x4a05b378        0x8 arch/arm/cpu/armv7/start.o
 .rel.text.efi_stall
                0x4a05b380        0x8 arch/arm/cpu/armv7/start.o
 .rel.text.efi_get_next_monotonic_count
                0x4a05b388       0x10 arch/arm/cpu/armv7/start.o
 .rel.text.efi_exit_boot_services
                0x4a05b398       0x10 arch/arm/cpu/armv7/start.o
 .rel.text.efi_unload_image
                0x4a05b3a8       0x10 arch/arm/cpu/armv7/start.o
 .rel.text.efi_start_image
                0x4a05b3b8       0x18 arch/arm/cpu/armv7/start.o
 .rel.text.efi_load_image
                0x4a05b3d0       0x18 arch/arm/cpu/armv7/start.o
 .rel.text.efi_install_configuration_table
                0x4a05b3e8       0x10 arch/arm/cpu/armv7/start.o
 .rel.text.efi_locate_device_path
                0x4a05b3f8        0x8 arch/arm/cpu/armv7/start.o
 .rel.text.efi_locate_handle
                0x4a05b400       0x10 arch/arm/cpu/armv7/start.o
 .rel.text.efi_register_protocol_notify
                0x4a05b410        0x8 arch/arm/cpu/armv7/start.o
 .rel.text.efi_uninstall_protocol_interface
                0x4a05b418        0x8 arch/arm/cpu/armv7/start.o
 .rel.text.efi_reinstall_protocol_interface
                0x4a05b420        0x8 arch/arm/cpu/armv7/start.o
 .rel.text.efi_install_protocol_interface
                0x4a05b428        0x8 arch/arm/cpu/armv7/start.o
 .rel.text.efi_check_event
                0x4a05b430        0x8 arch/arm/cpu/armv7/start.o
 .rel.text.efi_close_event
                0x4a05b438       0x10 arch/arm/cpu/armv7/start.o
 .rel.text.efi_signal_event
                0x4a05b448        0x8 arch/arm/cpu/armv7/start.o
 .rel.text.efi_set_timer
                0x4a05b450       0x18 arch/arm/cpu/armv7/start.o
 .rel.text.efi_create_event
                0x4a05b468       0x10 arch/arm/cpu/armv7/start.o
 .rel.text.efi_free_pool
                0x4a05b478        0x8 arch/arm/cpu/armv7/start.o
 .rel.text.efi_allocate_pool
                0x4a05b480        0x8 arch/arm/cpu/armv7/start.o
 .rel.text.efi_restore_tpl
                0x4a05b488        0x8 arch/arm/cpu/armv7/start.o
 .rel.text.efi_raise_tpl
                0x4a05b490        0x8 arch/arm/cpu/armv7/start.o
 .rel.text.efi_get_memory_map_ext
                0x4a05b498        0x8 arch/arm/cpu/armv7/start.o
 .rel.text.efi_free_pages_ext
                0x4a05b4a0        0x8 arch/arm/cpu/armv7/start.o
 .rel.text.efi_allocate_pages_ext
                0x4a05b4a8        0x8 arch/arm/cpu/armv7/start.o
 .rel.text.efi_exit_func
                0x4a05b4b0        0x8 arch/arm/cpu/armv7/start.o
 .rel.text.efi_timer_check
                0x4a05b4b8        0x8 arch/arm/cpu/armv7/start.o
 .rel.text.efi_wait_for_event
                0x4a05b4c0       0x10 arch/arm/cpu/armv7/start.o
 .rel.text.efi_runtime_relocate
                0x4a05b4d0       0x28 arch/arm/cpu/armv7/start.o
 .rel.text.efi_set_virtual_address_map
                0x4a05b4f8       0x10 arch/arm/cpu/armv7/start.o
 .rel.text.efi_cout_enable_cursor
                0x4a05b508        0x8 arch/arm/cpu/armv7/start.o
 .rel.text.efi_cout_set_cursor_position
                0x4a05b510       0x10 arch/arm/cpu/armv7/start.o
 .rel.text.efi_cout_clear_screen
                0x4a05b520        0x8 arch/arm/cpu/armv7/start.o
 .rel.text.efi_cout_query_mode
                0x4a05b528       0x20 arch/arm/cpu/armv7/start.o
 .rel.text.efi_cout_output_string
                0x4a05b548       0x18 arch/arm/cpu/armv7/start.o
 .rel.text.efi_find_free_memory
                0x4a05b560        0x8 arch/arm/cpu/armv7/start.o
 .rel.text.efi_add_memory_map
                0x4a05b568       0x10 arch/arm/cpu/armv7/start.o
 .rel.text.efi_get_memory_map
                0x4a05b578        0x8 arch/arm/cpu/armv7/start.o
 .rel.text.efi_memory_init
                0x4a05b580       0x10 arch/arm/cpu/armv7/start.o
 .rel.text.efi_disk_add_dev.part.3
                0x4a05b590       0x48 arch/arm/cpu/armv7/start.o
 .rel.text.efi_disk_register
                0x4a05b5d8       0x20 arch/arm/cpu/armv7/start.o
 .rel.text.efi_net_push
                0x4a05b5f8        0x8 arch/arm/cpu/armv7/start.o
 .rel.text.efi_net_get_status
                0x4a05b600        0x8 arch/arm/cpu/armv7/start.o
 .rel.text.efi_net_receive
                0x4a05b608       0x28 arch/arm/cpu/armv7/start.o
 .rel.text.efi_net_transmit
                0x4a05b630        0x8 arch/arm/cpu/armv7/start.o
 .rel.text.efi_net_set_dhcp_ack
                0x4a05b638        0x8 arch/arm/cpu/armv7/start.o
 .rel.text.efi_net_register
                0x4a05b640       0xa8 arch/arm/cpu/armv7/start.o
 .rel.text.inflate_fast
                0x4a05b6e8       0x18 arch/arm/cpu/armv7/start.o
 .rel.text.inflate_table
                0x4a05b700       0x20 arch/arm/cpu/armv7/start.o
 .rel.text.inflateInit2_
                0x4a05b720       0x10 arch/arm/cpu/armv7/start.o
 .rel.text.inflate
                0x4a05b730      0x188 arch/arm/cpu/armv7/start.o
 .rel.text.crc7
                0x00000000        0x0 arch/arm/cpu/armv7/start.o
 .rel.text.crc16_ccitt
                0x4a05b8b8        0x8 arch/arm/cpu/armv7/start.o
 .rel.text.zunzip
                0x4a05b8c0       0x28 arch/arm/cpu/armv7/start.o
 .rel.text.gunzip
                0x4a05b8e8       0x10 arch/arm/cpu/armv7/start.o
 .rel.text.initcall_run_list
                0x4a05b8f8        0x8 arch/arm/cpu/armv7/start.o
 .rel.text.lmb_alloc_base
                0x4a05b900        0x8 arch/arm/cpu/armv7/start.o
 .rel.text.list_sort
                0x4a05b908        0x8 arch/arm/cpu/armv7/start.o
 .rel.text.fdt_next_tag
                0x4a05b910       0x48 arch/arm/cpu/armv7/start.o
 .rel.text.fdt_get_phandle
                0x4a05b958       0x10 arch/arm/cpu/armv7/start.o
 .rel.text.fdt_get_alias_namelen
                0x4a05b968        0x8 arch/arm/cpu/armv7/start.o
 .rel.text.fdt_node_check_compatible
                0x4a05b970        0x8 arch/arm/cpu/armv7/start.o
 .rel.text.fdt_strerror
                0x4a05b978       0x20 arch/arm/cpu/armv7/start.o
 .rel.text.fdt_find_regions
                0x00000000        0x0 arch/arm/cpu/armv7/start.o
 .rel.text.fdt_create_empty_tree
                0x00000000        0x0 arch/arm/cpu/armv7/start.o
 .rel.text.fdt_address_cells
                0x4a05b998        0x8 arch/arm/cpu/armv7/start.o
 .rel.text.fdt_size_cells
                0x4a05b9a0        0x8 arch/arm/cpu/armv7/start.o
 .rel.text.fdt_add_alias_regions
                0x00000000        0x0 arch/arm/cpu/armv7/start.o
 .rel.text.fdt_next_region
                0x00000000        0x0 arch/arm/cpu/armv7/start.o
 .rel.text.fdtdec_get_compatible
                0x00000000        0x0 arch/arm/cpu/armv7/start.o
 .rel.text.fdtdec_get_is_enabled
                0x4a05b9a8       0x10 arch/arm/cpu/armv7/start.o
 .rel.text.fdtdec_lookup
                0x00000000        0x0 arch/arm/cpu/armv7/start.o
 .rel.text.fdtdec_next_compatible
                0x00000000        0x0 arch/arm/cpu/armv7/start.o
 .rel.text.fdtdec_next_compatible_subnode
                0x00000000        0x0 arch/arm/cpu/armv7/start.o
 .rel.text.fdtdec_next_alias
                0x00000000        0x0 arch/arm/cpu/armv7/start.o
 .rel.text.fdtdec_add_aliases_for_id
                0x00000000        0x0 arch/arm/cpu/armv7/start.o
 .rel.text.fdtdec_get_alias_seq
                0x4a05b9b8        0x8 arch/arm/cpu/armv7/start.o
 .rel.text.fdtdec_get_chosen_prop
                0x4a05b9c0        0x8 arch/arm/cpu/armv7/start.o
 .rel.text.fdtdec_prepare_fdt
                0x4a05b9c8        0x8 arch/arm/cpu/armv7/start.o
 .rel.text.fdtdec_get_config_int
                0x4a05b9d0        0x8 arch/arm/cpu/armv7/start.o
 .rel.text.fdtdec_get_config_bool
                0x00000000        0x0 arch/arm/cpu/armv7/start.o
 .rel.text.fdtdec_get_config_string
                0x4a05b9d8        0x8 arch/arm/cpu/armv7/start.o
 .rel.text.fdtdec_read_fmap_entry
                0x00000000        0x0 arch/arm/cpu/armv7/start.o
 .rel.text.fdtdec_decode_memory_region
                0x00000000        0x0 arch/arm/cpu/armv7/start.o
 .rel.text.fdtdec_decode_display_timing
                0x00000000        0x0 arch/arm/cpu/armv7/start.o
 .rel.text.fdtdec_setup
                0x4a05b9e0       0x10 arch/arm/cpu/armv7/start.o
 .rel.text.match_string
                0x4a05b9f0        0x8 arch/arm/cpu/armv7/start.o
 .rel.text.match_entry
                0x4a05b9f8        0x8 arch/arm/cpu/armv7/start.o
 .rel.text.hcreate_r
                0x4a05ba00        0x8 arch/arm/cpu/armv7/start.o
 .rel.text.hdestroy_r
                0x4a05ba08        0x8 arch/arm/cpu/armv7/start.o
 .rel.text.hmatch_r
                0x4a05ba10        0x8 arch/arm/cpu/armv7/start.o
 .rel.text.hsearch_r
                0x4a05ba18        0x8 arch/arm/cpu/armv7/start.o
 .rel.text.hdelete_r
                0x4a05ba20        0x8 arch/arm/cpu/armv7/start.o
 .rel.text.hexport_r
                0x4a05ba28       0x18 arch/arm/cpu/armv7/start.o
 .rel.text.himport_r
                0x4a05ba40       0x20 arch/arm/cpu/armv7/start.o
 .rel.text.display_options
                0x4a05ba60       0x10 arch/arm/cpu/armv7/start.o
 .rel.text.print_freq
                0x00000000        0x0 arch/arm/cpu/armv7/start.o
 .rel.text.print_size
                0x4a05ba70       0x28 arch/arm/cpu/armv7/start.o
 .rel.text.print_buffer
                0x4a05ba98       0x28 arch/arm/cpu/armv7/start.o
 .rel.text.crc32_no_comp
                0x4a05bac0        0x8 arch/arm/cpu/armv7/start.o
 .rel.text.hang
                0x4a05bac8        0x8 arch/arm/cpu/armv7/start.o
 .rel.text.skip_spaces
                0x4a05bad0        0x8 arch/arm/cpu/armv7/start.o
 .rel.text.strim
                0x4a05bad8        0x8 arch/arm/cpu/armv7/start.o
 .rel.text.emit
                0x4a05bae0        0x8 arch/arm/cpu/armv7/start.o
 .rel.text.store_char_in_data
                0x4a05bae8        0x8 arch/arm/cpu/armv7/start.o
 .rel.text.match
                0x4a05baf0       0xa0 arch/arm/cpu/armv7/start.o
 .rel.text.quantifier
                0x4a05bb90        0x8 arch/arm/cpu/armv7/start.o
 .rel.text.fixup_branch.part.0
                0x4a05bb98        0x8 arch/arm/cpu/armv7/start.o
 .rel.text.compile
                0x4a05bba0       0x28 arch/arm/cpu/armv7/start.o
 .rel.text.strncasecmp
                0x4a05bbc8        0x8 arch/arm/cpu/armv7/start.o
 .rel.text.strtok
                0x00000000        0x0 arch/arm/cpu/armv7/start.o
 .rel.text.uuid_str_valid
                0x4a05bbd0        0x8 arch/arm/cpu/armv7/start.o
 .rel.text.uuid_bin_to_str
                0x4a05bbd8       0x18 arch/arm/cpu/armv7/start.o
 .rel.text.string
                0x4a05bbf0        0x8 arch/arm/cpu/armv7/start.o
 .rel.text.number
                0x4a05bbf8        0x8 arch/arm/cpu/armv7/start.o
 .rel.text.vsnprintf_internal
                0x4a05bc00       0x10 arch/arm/cpu/armv7/start.o
 .rel.text.__assert_fail
                0x00000000        0x0 arch/arm/cpu/armv7/start.o
 .rel.text.simple_itoa
                0x4a05bc10        0x8 arch/arm/cpu/armv7/start.o
 .rel.text.print_grouped_ull
                0x00000000        0x0 arch/arm/cpu/armv7/start.o
 .rel.text.simple_strtoul
                0x4a05bc18        0x8 arch/arm/cpu/armv7/start.o
 .rel.text.simple_strtoull
                0x4a05bc20        0x8 arch/arm/cpu/armv7/start.o
 .rel.text.trailing_strtoln
                0x4a05bc28        0x8 arch/arm/cpu/armv7/start.o
 .rel.text.strmhz
                0x00000000        0x0 arch/arm/cpu/armv7/start.o
 .rel.rodata.efi_boot_services
                0x4a05bc30      0x150 arch/arm/cpu/armv7/start.o
 .rel.rodata.efi_runtime_detach_list
                0x4a05bd80       0x48 arch/arm/cpu/armv7/start.o
 .rel.rodata.efi_con_out
                0x4a05bdc8       0x50 arch/arm/cpu/armv7/start.o
 .rel.rodata.efi_console_control
                0x4a05be18       0x18 arch/arm/cpu/armv7/start.o
 .rel.rodata.efi_con_in
                0x4a05be30       0x10 arch/arm/cpu/armv7/start.o
 .rel.rodata.z_errmsg
                0x00000000        0x0 arch/arm/cpu/armv7/start.o
 .rel.rodata.fdt_errtable
                0x4a05be40       0x58 arch/arm/cpu/armv7/start.o
 .rel.rodata.compat_names
                0x00000000        0x0 arch/arm/cpu/armv7/start.o
 .rel.data.efi_class_maps
                0x4a05be98       0x10 arch/arm/cpu/armv7/start.o
 .rel.data.loaded_image_info_obj.5046
                0x4a05bea8       0x10 arch/arm/cpu/armv7/start.o
 .rel.data.efi_obj_list
                0x4a05beb8       0x10 arch/arm/cpu/armv7/start.o
 .rel.data.efi_mem
                0x4a05bec8       0x10 arch/arm/cpu/armv7/start.o
 .rel.data.current
                0x00000000        0x0 arch/arm/cpu/armv7/start.o
 .rel.text.arp_init
                0x4a05bed8       0x30 arch/arm/cpu/armv7/start.o
 .rel.text.arp_raw_request
                0x4a05bf08       0x18 arch/arm/cpu/armv7/start.o
 .rel.text.arp_request
                0x4a05bf20       0x38 arch/arm/cpu/armv7/start.o
 .rel.text.arp_timeout_check
                0x4a05bf58       0x28 arch/arm/cpu/armv7/start.o
 .rel.text.arp_receive
                0x4a05bf80       0x40 arch/arm/cpu/armv7/start.o
 .rel.text.dhcp_process_options
                0x4a05bfc0       0x68 arch/arm/cpu/armv7/start.o
 .rel.text.dhcp_extended
                0x4a05c028       0x28 arch/arm/cpu/armv7/start.o
 .rel.text.dhcp_packet_process_options
                0x4a05c050        0x8 arch/arm/cpu/armv7/start.o
 .rel.text.dhcp_handler
                0x4a05c058       0x90 arch/arm/cpu/armv7/start.o
 .rel.text.bootp_reset
                0x4a05c0e8       0x20 arch/arm/cpu/armv7/start.o
 .rel.text.bootp_request
                0x4a05c108       0x78 arch/arm/cpu/armv7/start.o
 .rel.text.bootp_timeout_handler
                0x4a05c180       0x28 arch/arm/cpu/armv7/start.o
 .rel.text.eth_post_probe
                0x4a05c1a8       0x30 arch/arm/cpu/armv7/start.o
 .rel.text.eth_post_bind
                0x4a05c1d8        0x8 arch/arm/cpu/armv7/start.o
 .rel.text.eth_get_dev
                0x4a05c1e0        0x8 arch/arm/cpu/armv7/start.o
 .rel.text.eth_set_dev
                0x4a05c1e8        0x8 arch/arm/cpu/armv7/start.o
 .rel.text.eth_get_dev_by_name
                0x4a05c1f0        0x8 arch/arm/cpu/armv7/start.o
 .rel.text.eth_init
                0x4a05c1f8       0x28 arch/arm/cpu/armv7/start.o
 .rel.text.eth_initialize
                0x4a05c220       0x38 arch/arm/cpu/armv7/start.o
 .rel.text.eth_setenv_enetaddr
                0x4a05c258        0x8 arch/arm/cpu/armv7/start.o
 .rel.text.eth_getenv_enetaddr_by_index
                0x4a05c260       0x10 arch/arm/cpu/armv7/start.o
 .rel.text.eth_setenv_enetaddr_by_index
                0x4a05c270       0x10 arch/arm/cpu/armv7/start.o
 .rel.text.eth_mac_skip
                0x4a05c280       0x10 arch/arm/cpu/armv7/start.o
 .rel.text.eth_get_name
                0x4a05c290        0x8 arch/arm/cpu/armv7/start.o
 .rel.text.eth_current_changed
                0x4a05c298       0x18 arch/arm/cpu/armv7/start.o
 .rel.text.eth_set_current
                0x4a05c2b0       0x20 arch/arm/cpu/armv7/start.o
 .rel.text.eth_try_another
                0x4a05c2d0       0x20 arch/arm/cpu/armv7/start.o
 .rel.text.start_again_timeout_handler
                0x4a05c2f0        0x8 arch/arm/cpu/armv7/start.o
 .rel.text.on_serverip
                0x4a05c2f8        0x8 arch/arm/cpu/armv7/start.o
 .rel.text.on_netmask
                0x4a05c300        0x8 arch/arm/cpu/armv7/start.o
 .rel.text.on_gatewayip
                0x4a05c308        0x8 arch/arm/cpu/armv7/start.o
 .rel.text.on_ipaddr
                0x4a05c310        0x8 arch/arm/cpu/armv7/start.o
 .rel.text.net_init_loop
                0x4a05c318        0x8 arch/arm/cpu/armv7/start.o
 .rel.text.net_auto_load
                0x4a05c320       0x18 arch/arm/cpu/armv7/start.o
 .rel.text.net_get_udp_handler
                0x00000000        0x0 arch/arm/cpu/armv7/start.o
 .rel.text.net_set_udp_handler
                0x4a05c338       0x10 arch/arm/cpu/armv7/start.o
 .rel.text.net_get_arp_handler
                0x4a05c348        0x8 arch/arm/cpu/armv7/start.o
 .rel.text.net_set_arp_handler
                0x4a05c350       0x10 arch/arm/cpu/armv7/start.o
 .rel.text.net_set_timeout_handler
                0x4a05c360       0x18 arch/arm/cpu/armv7/start.o
 .rel.text.net_start_again
                0x4a05c378       0x50 arch/arm/cpu/armv7/start.o
 .rel.text.net_init
                0x4a05c3c8       0x20 arch/arm/cpu/armv7/start.o
 .rel.text.net_loop
                0x4a05c3e8      0x178 arch/arm/cpu/armv7/start.o
 .rel.text.net_process_received_packet
                0x4a05c560       0x40 arch/arm/cpu/armv7/start.o
 .rel.text.net_eth_hdr_size
                0x4a05c5a0        0x8 arch/arm/cpu/armv7/start.o
 .rel.text.net_set_ether
                0x4a05c5a8       0x10 arch/arm/cpu/armv7/start.o
 .rel.text.net_update_ether
                0x4a05c5b8        0x8 arch/arm/cpu/armv7/start.o
 .rel.text.net_set_ip_header
                0x4a05c5c0        0x8 arch/arm/cpu/armv7/start.o
 .rel.text.net_set_udp_header
                0x4a05c5c8        0x8 arch/arm/cpu/armv7/start.o
 .rel.text.net_send_udp_packet
                0x4a05c5d0       0x40 arch/arm/cpu/armv7/start.o
 .rel.text.on_bootfile
                0x4a05c610        0x8 arch/arm/cpu/armv7/start.o
 .rel.text.ip_to_string
                0x4a05c618        0x8 arch/arm/cpu/armv7/start.o
 .rel.text.vlan_to_string
                0x00000000        0x0 arch/arm/cpu/armv7/start.o
 .rel.text.on_vlan
                0x4a05c620        0x8 arch/arm/cpu/armv7/start.o
 .rel.text.on_nvlan
                0x4a05c628        0x8 arch/arm/cpu/armv7/start.o
 .rel.text.rpc_lookup_reply
                0x4a05c630       0x18 arch/arm/cpu/armv7/start.o
 .rel.text.nfs_mount_reply
                0x4a05c648       0x18 arch/arm/cpu/armv7/start.o
 .rel.text.nfs_umountall_reply
                0x4a05c660       0x18 arch/arm/cpu/armv7/start.o
 .rel.text.rpc_req
                0x4a05c678       0x40 arch/arm/cpu/armv7/start.o
 .rel.text.nfs_umountall_req
                0x4a05c6b8       0x10 arch/arm/cpu/armv7/start.o
 .rel.text.nfs_lookup_req
                0x4a05c6c8       0x10 arch/arm/cpu/armv7/start.o
 .rel.text.nfs_read_req
                0x4a05c6d8       0x18 arch/arm/cpu/armv7/start.o
 .rel.text.nfs_readlink_req
                0x4a05c6f0       0x18 arch/arm/cpu/armv7/start.o
 .rel.text.nfs_send
                0x4a05c708       0x68 arch/arm/cpu/armv7/start.o
 .rel.text.nfs_lookup_reply
                0x4a05c770       0x30 arch/arm/cpu/armv7/start.o
 .rel.text.nfs_readlink_reply
                0x4a05c7a0       0x20 arch/arm/cpu/armv7/start.o
 .rel.text.nfs_read_reply.isra.2
                0x4a05c7c0       0x30 arch/arm/cpu/armv7/start.o
 .rel.text.nfs_handler
                0x4a05c7f0       0xa8 arch/arm/cpu/armv7/start.o
 .rel.text.nfs_timeout_handler
                0x4a05c898       0x20 arch/arm/cpu/armv7/start.o
 .rel.text.nfs_start
                0x4a05c8b8       0x88 arch/arm/cpu/armv7/start.o
 .rel.text.ping_timeout_handler
                0x4a05c940        0x8 arch/arm/cpu/armv7/start.o
 .rel.text.ping_start
                0x4a05c948       0x58 arch/arm/cpu/armv7/start.o
 .rel.text.ping_receive
                0x4a05c9a0       0x18 arch/arm/cpu/armv7/start.o
 .rel.text.tftp_send
                0x4a05c9b8       0xb8 arch/arm/cpu/armv7/start.o
 .rel.text.tftp_timeout_handler
                0x4a05ca70       0x40 arch/arm/cpu/armv7/start.o
 .rel.text.tftp_handler
                0x4a05cab0       0xd0 arch/arm/cpu/armv7/start.o
 .rel.text.tftp_start
                0x4a05cb80      0x148 arch/arm/cpu/armv7/start.o
 .rel.u_boot_list_2_uclass_2_eth
                0x4a05ccc8       0x28 arch/arm/cpu/armv7/start.o
 .rel.u_boot_list_2_env_clbk_2_ethaddr
                0x4a05ccf0       0x10 arch/arm/cpu/armv7/start.o
 .rel.u_boot_list_2_env_clbk_2_ipaddr
                0x4a05cd00       0x10 arch/arm/cpu/armv7/start.o
 .rel.u_boot_list_2_env_clbk_2_vlan
                0x4a05cd10       0x10 arch/arm/cpu/armv7/start.o
 .rel.u_boot_list_2_env_clbk_2_serverip
                0x4a05cd20       0x10 arch/arm/cpu/armv7/start.o
 .rel.u_boot_list_2_env_clbk_2_bootfile
                0x4a05cd30       0x10 arch/arm/cpu/armv7/start.o
 .rel.u_boot_list_2_env_clbk_2_netmask
                0x4a05cd40       0x10 arch/arm/cpu/armv7/start.o
 .rel.u_boot_list_2_env_clbk_2_nvlan
                0x4a05cd50       0x10 arch/arm/cpu/armv7/start.o
 .rel.u_boot_list_2_env_clbk_2_gatewayip
                0x4a05cd60       0x10 arch/arm/cpu/armv7/start.o
 .rel.text.do_dm
                0x4a05cd70        0x8 arch/arm/cpu/armv7/start.o
 .rel.u_boot_list_2_cmd_2_dm
                0x4a05cd78       0x20 arch/arm/cpu/armv7/start.o
 .rel.data.test_commands
                0x4a05cd98       0x60 arch/arm/cpu/armv7/start.o
 .rel.text.raise
                0x00000000        0x0 arch/arm/cpu/armv7/start.o

.rel_dyn_end    0x4a05cdf8        0x0
 *(.__rel_dyn_end)
 .__rel_dyn_end
                0x4a05cdf8        0x0 arch/arm/lib/built-in.o

.end            0x4a05cdf8        0x0
 *(.__end)
 .__end         0x4a05cdf8        0x0 arch/arm/lib/built-in.o
                0x4a05cdf8                _image_binary_end = .
                0x4a05d000                . = ALIGN (0x1000)

.mmutable
 *(.mmutable)

.bss_start      0x4a053cf8        0x0
 *(.__bss_start)
 .__bss_start   0x4a053cf8        0x0 arch/arm/lib/built-in.o
                0x4a053cf8                __bss_start
                0x4a053cf8                __bss_base = .

.bss            0x4a053cf8    0x3b1fc
 *(.bss*)
 .bss.params    0x4a053cf8        0x4 arch/arm/lib/built-in.o
 .bss.initial_usb_scan_delay
                0x4a053cfc        0x4 arch/arm/mach-sunxi/built-in.o
 .bss.working_fdt
                0x4a053d00        0x4 cmd/built-in.o
                0x4a053d00                working_fdt
 .bss.data.5046
                0x4a053d04      0x400 cmd/built-in.o
 .bss.i2c_mm_last_chip
                0x4a054104        0x4 cmd/built-in.o
 .bss.i2c_mm_last_addr
                0x4a054108        0x4 cmd/built-in.o
 .bss.i2c_dp_last_chip
                0x4a05410c        0x4 cmd/built-in.o
 .bss.i2c_mm_last_alen
                0x4a054110        0x4 cmd/built-in.o
 .bss.i2c_dp_last_addr
                0x4a054114        0x4 cmd/built-in.o
 .bss.i2c_dp_last_alen
                0x4a054118        0x4 cmd/built-in.o
 .bss.send_parms
                0x4a05411c       0x14 cmd/built-in.o
 .bss.os_data_init
                0x4a054130        0x4 cmd/built-in.o
 .bss.os_data_addr_saved
                0x4a054134        0x4 cmd/built-in.o
 .bss.his_pad_char
                0x4a054138        0x1 cmd/built-in.o
 .bss.a_b       0x4a054139       0x18 cmd/built-in.o
 *fill*         0x4a054151        0x3 00
 .bss.os_data_char
                0x4a054154        0x4 cmd/built-in.o
 .bss.os_data_state
                0x4a054158        0x4 cmd/built-in.o
 .bss.k_data_escape
                0x4a05415c        0x4 cmd/built-in.o
 .bss.os_data_state_saved
                0x4a054160        0x4 cmd/built-in.o
 .bss.os_data_addr
                0x4a054164        0x4 cmd/built-in.o
 .bss.send_ptr  0x4a054168        0x4 cmd/built-in.o
 .bss.bin_start_address
                0x4a05416c        0x4 cmd/built-in.o
 .bss.his_quote
                0x4a054170        0x1 cmd/built-in.o
 *fill*         0x4a054171        0x3 00
 .bss.his_pad_count
                0x4a054174        0x4 cmd/built-in.o
 .bss.his_eol   0x4a054178        0x1 cmd/built-in.o
 *fill*         0x4a054179        0x3 00
 .bss.k_data_escape_saved
                0x4a05417c        0x4 cmd/built-in.o
 .bss.dp_last_addr
                0x4a054180        0x4 cmd/built-in.o
 .bss.base_address
                0x4a054184        0x4 cmd/built-in.o
 .bss.mm_last_size
                0x4a054188        0x4 cmd/built-in.o
 .bss.mm_last_addr
                0x4a05418c        0x4 cmd/built-in.o
 .bss.dp_last_size
                0x4a054190        0x4 cmd/built-in.o
 .bss.last_data
                0x4a054194        0x8 cmd/built-in.o
 .bss.last_reg_hi
                0x4a05419c        0x8 cmd/built-in.o
 .bss.last_mask
                0x4a0541a4        0x4 cmd/built-in.o
 .bss.last_addr_lo
                0x4a0541a8        0x8 cmd/built-in.o
 .bss.last_op   0x4a0541b0        0x4 cmd/built-in.o
 .bss.last_addr_hi
                0x4a0541b4        0x8 cmd/built-in.o
 .bss.last_reg_lo
                0x4a0541bc        0x8 cmd/built-in.o
 .bss.last_devad_hi
                0x4a0541c4        0x4 cmd/built-in.o
 .bss.last_devad_lo
                0x4a0541c8        0x4 cmd/built-in.o
 .bss.do_getfile
                0x4a0541cc        0x4 cmd/built-in.o
 .bss.is_pxe    0x4a0541d0        0x1 cmd/built-in.o
 *fill*         0x4a0541d1        0x3 00
 .bss.fs_argv   0x4a0541d4       0x14 cmd/built-in.o
 .bss.buf.4632  0x4a0541e8       0x28 common/built-in.o
 .bss.flag_repeat
                0x4a054210        0x4 common/built-in.o
 .bss.ifs       0x4a054214        0x4 common/built-in.o
 .bss.last_return_code
                0x4a054218        0x4 common/built-in.o
 .bss.map       0x4a05421c      0x100 common/built-in.o
 .bss.do_repeat
                0x4a05431c        0x4 common/built-in.o
 .bss.the_command.4432
                0x4a054320      0x401 common/built-in.o
 *fill*         0x4a054721        0x3 00
 .bss.top_vars  0x4a054724        0x4 common/built-in.o
 .bss.stored_bootdelay
                0x4a054728        0x4 common/built-in.o
 .bss.monitor_flash_len
                0x4a05472c        0x4 common/built-in.o
                0x4a05472c                monitor_flash_len
 .bss.images    0x4a054730      0x130 common/built-in.o
                0x4a054730                images
 .bss.callback_list
                0x4a054860        0x4 common/built-in.o
 .bss.flags_list
                0x4a054864        0x4 common/built-in.o
 .bss.current_mii
                0x4a054868        0x4 common/built-in.o
 .bss.mii_devs  0x4a05486c        0x8 common/built-in.o
 .bss.usb_started
                0x4a054874        0x1 common/built-in.o
                0x4a054874                usb_started
 *fill*         0x4a054875        0x3 00
 .bss.usb_hub_index
                0x4a054878        0x4 common/built-in.o
 .bss.running.6774
                0x4a05487c        0x4 common/built-in.o
 .bss.hub_dev   0x4a054880      0x380 common/built-in.o
 .bss.usb_stor  0x4a054c00      0x16c common/built-in.o
 .bss.usb_dev_desc
                0x4a054d6c      0x32c common/built-in.o
 .bss.usb_max_devs
                0x4a055098        0x4 common/built-in.o
 .bss.CBWTag    0x4a05509c        0x4 common/built-in.o
 *fill*         0x4a0550a0       0x20 00
 .bss.usb_ccb   0x4a0550c0       0xc0 common/built-in.o
 .bss.ctrlc_was_pressed
                0x4a055180        0x4 common/built-in.o
 .bss.ctrlc_disabled
                0x4a055184        0x4 common/built-in.o
 .bss.max_total_mem
                0x4a055188        0x4 common/built-in.o
 .bss.mem_malloc_brk
                0x4a05518c        0x4 common/built-in.o
                0x4a05518c                mem_malloc_brk
 .bss.max_sbrked_mem
                0x4a055190        0x4 common/built-in.o
 .bss.current_mallinfo
                0x4a055194       0x28 common/built-in.o
 .bss.mem_malloc_end
                0x4a0551bc        0x4 common/built-in.o
                0x4a0551bc                mem_malloc_end
 .bss.top_pad   0x4a0551c0        0x4 common/built-in.o
 .bss.mem_malloc_start
                0x4a0551c4        0x4 common/built-in.o
                0x4a0551c4                mem_malloc_start
 .bss.devs      0x4a0551c8       0x4c common/built-in.o
 .bss.stdio_devices
                0x4a055214        0xc common/built-in.o
                0x4a055214                stdio_devices
 .bss.hist_list
                0x4a055220       0x50 common/built-in.o
 .bss.hist_lines
                0x4a055270     0x5014 common/built-in.o
 .bss.hist_max  0x4a05a284        0x4 common/built-in.o
 .bss.initted.4300
                0x4a05a288        0x4 common/built-in.o
 .bss.hist_add_idx
                0x4a05a28c        0x4 common/built-in.o
 .bss.hist_num  0x4a05a290        0x4 common/built-in.o
 .bss.console_buffer
                0x4a05a294      0x401 common/built-in.o
                0x4a05a294                console_buffer
 .bss.tmp_buf   0x4a05a695      0x400 common/built-in.o
 .bss.tmp_buf.4191
                0x4a05aa95      0x200 common/built-in.o
 *fill*         0x4a05ac95        0x3 00
 .bss.xyz       0x4a05ac98      0x434 common/built-in.o
 .bss.tmpbuf    0x4a05b0cc      0x800 disk/built-in.o
 .bss.name.4274
                0x4a05b8cc       0x25 disk/built-in.o
 *fill*         0x4a05b8f1        0x3 00
 .bss.mmc_devices
                0x4a05b8f4        0x8 drivers/mmc/built-in.o
 .bss.initialized.6425
                0x4a05b8fc        0x4 drivers/mmc/built-in.o
 .bss.mmc_host  0x4a05b900       0xc0 drivers/mmc/built-in.o
                0x4a05b900                mmc_host
 .bss.asynch_allowed
                0x4a05b9c0        0x1 drivers/usb/host/built-in.o
 *fill*         0x4a05b9c1        0x3 00
 .bss.fs_partition
                0x4a05b9c4       0x78 fs/built-in.o
 .bss.fs_type   0x4a05ba3c        0x4 fs/built-in.o
 .bss.fs_dev_desc
                0x4a05ba40        0x4 fs/built-in.o
 *fill*         0x4a05ba44        0x4 00
 .bss.ext_fs    0x4a05ba48       0x48 fs/built-in.o
                0x4a05ba48                ext_fs
 .bss.ext4fs_indir3_block
                0x4a05ba90        0x4 fs/built-in.o
                0x4a05ba90                ext4fs_indir3_block
 .bss.ext4fs_root
                0x4a05ba94        0x4 fs/built-in.o
                0x4a05ba94                ext4fs_root
 .bss.ext4fs_indir3_size
                0x4a05ba98        0x4 fs/built-in.o
                0x4a05ba98                ext4fs_indir3_size
 .bss.ext4fs_indir1_block
                0x4a05ba9c        0x4 fs/built-in.o
                0x4a05ba9c                ext4fs_indir1_block
 .bss.ext4fs_indir2_size
                0x4a05baa0        0x4 fs/built-in.o
                0x4a05baa0                ext4fs_indir2_size
 .bss.ext4fs_indir2_block
                0x4a05baa4        0x4 fs/built-in.o
                0x4a05baa4                ext4fs_indir2_block
 .bss.ext4fs_indir1_size
                0x4a05baa8        0x4 fs/built-in.o
                0x4a05baa8                ext4fs_indir1_size
 .bss.symlinknest
                0x4a05baac        0x4 fs/built-in.o
 .bss.ext4fs_file
                0x4a05bab0        0x4 fs/built-in.o
                0x4a05bab0                ext4fs_file
 .bss.part_info
                0x4a05bab4        0x4 fs/built-in.o
 .bss.part_offset
                0x4a05bab8        0x4 fs/built-in.o
                0x4a05bab8                part_offset
 .bss.ext4fs_blk_desc
                0x4a05babc        0x4 fs/built-in.o
 .bss.do_fat_read_at_block
                0x4a05bac0    0x10000 fs/built-in.o
                0x4a05bac0                do_fat_read_at_block
 .bss.get_dentfromdir_block
                0x4a06bac0    0x10000 fs/built-in.o
                0x4a06bac0                get_dentfromdir_block
 .bss.empty_dentptr
                0x4a07bac0        0x4 fs/built-in.o
 .bss.cur_part_info
                0x4a07bac4       0x78 fs/built-in.o
 .bss.total_sector
                0x4a07bb3c        0x4 fs/built-in.o
 .bss.dir_curclust
                0x4a07bb40        0x4 fs/built-in.o
 *fill*         0x4a07bb44       0x3c 00
 .bss.get_contents_vfatname_block
                0x4a07bb80    0x10000 fs/built-in.o
                0x4a07bb80                get_contents_vfatname_block
 .bss.cur_dev   0x4a08bb80        0x4 fs/built-in.o
 .bss.num_of_fats
                0x4a08bb84        0x1 fs/built-in.o
 *fill*         0x4a08bb85        0x3 00
 .bss.app_gd    0x4a08bb88        0x4 lib/built-in.o
 *fill*         0x4a08bb8c        0x4 00
 .bss.mono.5094
                0x4a08bb90        0x8 lib/built-in.o
 .bss.efi_gd    0x4a08bb98        0x4 lib/built-in.o
 .bss.console_size_queried
                0x4a08bb9c        0x1 lib/built-in.o
 .bss.new_rx_packet
                0x4a08bb9d        0x1 lib/built-in.o
 *fill*         0x4a08bb9e        0x2 00
 .bss.dhcp_ack  0x4a08bba0        0x4 lib/built-in.o
 .bss.new_tx_packet
                0x4a08bba4        0x4 lib/built-in.o
 .bss.errno     0x4a08bba8        0x4 lib/built-in.o
                0x4a08bba8                errno
 .bss.local.4372
                0x4a08bbac       0x16 lib/built-in.o
 .bss.arp_tx_packet_buf
                0x4a08bbc2      0x640 net/built-in.o
 *fill*         0x4a08c202        0x2 00
 .bss.arp_wait_packet_ethaddr
                0x4a08c204        0x4 net/built-in.o
                0x4a08c204                arp_wait_packet_ethaddr
 .bss.arp_tx_packet
                0x4a08c208        0x4 net/built-in.o
 .bss.arp_wait_tx_packet_size
                0x4a08c20c        0x4 net/built-in.o
                0x4a08c20c                arp_wait_tx_packet_size
 .bss.arp_wait_try
                0x4a08c210        0x4 net/built-in.o
                0x4a08c210                arp_wait_try
 .bss.net_arp_wait_reply_ip
                0x4a08c214        0x4 net/built-in.o
 .bss.net_arp_wait_packet_ip
                0x4a08c218        0x4 net/built-in.o
                0x4a08c218                net_arp_wait_packet_ip
 .bss.arp_wait_timer_start
                0x4a08c21c        0x4 net/built-in.o
                0x4a08c21c                arp_wait_timer_start
 .bss.dhcp_state
                0x4a08c220        0x4 net/built-in.o
 .bss.net_hostname
                0x4a08c224       0x20 net/built-in.o
                0x4a08c224                net_hostname
 .bss.bootp_timeout
                0x4a08c244        0x4 net/built-in.o
                0x4a08c244                bootp_timeout
 .bss.dhcp_server_ip
                0x4a08c248        0x4 net/built-in.o
 .bss.dhcp_option_overload
                0x4a08c24c        0x1 net/built-in.o
 *fill*         0x4a08c24d        0x3 00
 .bss.time_taken_max
                0x4a08c250        0x4 net/built-in.o
 .bss.net_root_path
                0x4a08c254       0x40 net/built-in.o
                0x4a08c254                net_root_path
 .bss.bootp_ids
                0x4a08c294       0x10 net/built-in.o
                0x4a08c294                bootp_ids
 .bss.bootp_num_ids
                0x4a08c2a4        0x4 net/built-in.o
                0x4a08c2a4                bootp_num_ids
 .bss.bootp_try
                0x4a08c2a8        0x4 net/built-in.o
                0x4a08c2a8                bootp_try
 .bss.bootp_start
                0x4a08c2ac        0x4 net/built-in.o
                0x4a08c2ac                bootp_start
 .bss.dhcp_leasetime
                0x4a08c2b0        0x4 net/built-in.o
 .bss.net_nis_domain
                0x4a08c2b4       0x20 net/built-in.o
                0x4a08c2b4                net_nis_domain
 .bss.eth_errno
                0x4a08c2d4        0x4 net/built-in.o
 .bss.env_changed_id.6325
                0x4a08c2d8        0x4 net/built-in.o
 .bss.act.6324  0x4a08c2dc        0x4 net/built-in.o
 .bss.first_failed.6319
                0x4a08c2e0        0x4 net/built-in.o
 .bss.net_ethaddr
                0x4a08c2e4        0x6 net/built-in.o
                0x4a08c2e4                net_ethaddr
 *fill*         0x4a08c2ea        0x2 00
 .bss.net_dns_server
                0x4a08c2ec        0x4 net/built-in.o
                0x4a08c2ec                net_dns_server
 .bss.net_state
                0x4a08c2f0        0x4 net/built-in.o
                0x4a08c2f0                net_state
 .bss.net_server_ip
                0x4a08c2f4        0x4 net/built-in.o
                0x4a08c2f4                net_server_ip
 .bss.net_rx_packet
                0x4a08c2f8        0x4 net/built-in.o
                0x4a08c2f8                net_rx_packet
 .bss.net_boot_file_expected_size_in_blocks
                0x4a08c2fc        0x4 net/built-in.o
                0x4a08c2fc                net_boot_file_expected_size_in_blocks
 .bss.net_rx_packets
                0x4a08c300       0x10 net/built-in.o
                0x4a08c300                net_rx_packets
 .bss.time_start
                0x4a08c310        0x8 net/built-in.o
 .bss.net_gateway
                0x4a08c318        0x4 net/built-in.o
                0x4a08c318                net_gateway
 .bss.net_boot_file_name
                0x4a08c31c      0x400 net/built-in.o
                0x4a08c31c                net_boot_file_name
 .bss.udp_packet_handler
                0x4a08c71c        0x4 net/built-in.o
 .bss.net_dev_exists
                0x4a08c720        0x4 net/built-in.o
 .bss.net_try_count
                0x4a08c724        0x4 net/built-in.o
 .bss.push_packet
                0x4a08c728        0x4 net/built-in.o
                0x4a08c728                push_packet
 .bss.net_server_ethaddr
                0x4a08c72c        0x6 net/built-in.o
                0x4a08c72c                net_server_ethaddr
 .bss.net_null_ethaddr
                0x4a08c732        0x6 net/built-in.o
                0x4a08c732                net_null_ethaddr
 .bss.net_ip_id
                0x4a08c738        0x4 net/built-in.o
 .bss.net_restart_wrap
                0x4a08c73c        0x4 net/built-in.o
                0x4a08c73c                net_restart_wrap
 .bss.net_restarted
                0x4a08c740        0x4 net/built-in.o
 .bss.time_delta
                0x4a08c744        0x4 net/built-in.o
 .bss.arp_packet_handler
                0x4a08c748        0x4 net/built-in.o
 .bss.net_netmask
                0x4a08c74c        0x4 net/built-in.o
                0x4a08c74c                net_netmask
 .bss.net_pkt_buf
                0x4a08c750     0x1e40 net/built-in.o
 .bss.net_ip    0x4a08e590        0x4 net/built-in.o
                0x4a08e590                net_ip
 .bss.net_rx_packet_len
                0x4a08e594        0x4 net/built-in.o
                0x4a08e594                net_rx_packet_len
 .bss.net_tx_packet
                0x4a08e598        0x4 net/built-in.o
                0x4a08e598                net_tx_packet
 .bss.time_handler
                0x4a08e59c        0x4 net/built-in.o
 .bss.net_boot_file_size
                0x4a08e5a0        0x4 net/built-in.o
                0x4a08e5a0                net_boot_file_size
 .bss.nfs_server_mount_port
                0x4a08e5a4        0x4 net/built-in.o
 .bss.nfs_server_ip
                0x4a08e5a8        0x4 net/built-in.o
 .bss.nfs_filename
                0x4a08e5ac        0x4 net/built-in.o
 .bss.nfs_state
                0x4a08e5b0        0x4 net/built-in.o
 .bss.filefh3_length
                0x4a08e5b4        0x4 net/built-in.o
 .bss.dirfh     0x4a08e5b8       0x20 net/built-in.o
 .bss.rpc_id    0x4a08e5d8        0x4 net/built-in.o
 .bss.fs_mounted
                0x4a08e5dc        0x4 net/built-in.o
 .bss.nfs_len   0x4a08e5e0        0x4 net/built-in.o
 .bss.nfs_server_port
                0x4a08e5e4        0x4 net/built-in.o
 .bss.nfs_download_state
                0x4a08e5e8        0x4 net/built-in.o
 .bss.nfs_path  0x4a08e5ec        0x4 net/built-in.o
 .bss.nfs_path_buff
                0x4a08e5f0      0x800 net/built-in.o
 .bss.nfs_timeout_count
                0x4a08edf0        0x4 net/built-in.o
 .bss.filefh    0x4a08edf4       0x40 net/built-in.o
 .bss.nfs_our_port
                0x4a08ee34        0x4 net/built-in.o
 .bss.net_ping_ip
                0x4a08ee38        0x4 net/built-in.o
                0x4a08ee38                net_ping_ip
 .bss.ping_seq_number
                0x4a08ee3c        0x2 net/built-in.o
 *fill*         0x4a08ee3e        0x2 00
 .bss.timeout_count
                0x4a08ee40        0x4 net/built-in.o
 .bss.tftp_block_wrap
                0x4a08ee44        0x4 net/built-in.o
 .bss.default_filename
                0x4a08ee48        0xd net/built-in.o
 *fill*         0x4a08ee55        0x3 00
 .bss.tftp_remote_port
                0x4a08ee58        0x4 net/built-in.o
 .bss.tftp_cur_block
                0x4a08ee5c        0x4 net/built-in.o
 .bss.tftp_remote_ip
                0x4a08ee60        0x4 net/built-in.o
 .bss.tftp_state
                0x4a08ee64        0x4 net/built-in.o
 .bss.tftp_our_port
                0x4a08ee68        0x4 net/built-in.o
 .bss.tftp_filename
                0x4a08ee6c       0x80 net/built-in.o
 .bss.tftp_block_wrap_offset
                0x4a08eeec        0x4 net/built-in.o
 .bss.tftp_prev_block
                0x4a08eef0        0x4 net/built-in.o
                0x4a08eef4                . = ALIGN (0x4)
                0x4a08eef4                __bss_limit = .

.bss_end        0x4a08eef4        0x0
 *(.__bss_end)
 .__bss_end     0x4a08eef4        0x0 arch/arm/lib/built-in.o
                0x4a08eef4                __bss_end

.dynsym         0x4a05cdf8       0x60
 *(.dynsym)
 .dynsym        0x4a05cdf8       0x60 arch/arm/cpu/armv7/start.o

.dynbss         0x4a05ce58        0x0
 *(.dynbss)
 .dynbss        0x00000000        0x0 arch/arm/cpu/armv7/start.o

.dynstr         0x4a05ce58       0x2a
 *(.dynstr*)
 .dynstr        0x4a05ce58       0x2a arch/arm/cpu/armv7/start.o

.dynamic        0x4a05ce84       0x80
 *(.dynamic*)
 .dynamic       0x4a05ce84       0x80 arch/arm/cpu/armv7/start.o
                0x4a05ce84                _DYNAMIC

.plt            0x4a05cf04        0x0
 *(.plt*)
 .plt           0x00000000        0x0 arch/arm/cpu/armv7/start.o

.interp         0x4a05cf04       0x11
 *(.interp*)
 .interp        0x4a05cf04       0x11 arch/arm/cpu/armv7/start.o

.gnu.hash
 *(.gnu.hash)

.gnu            0x4a05cf18        0x0
 *(.gnu*)
 .gnu.version_d
                0x00000000        0x0 arch/arm/cpu/armv7/start.o
 .gnu.version   0x00000000        0x0 arch/arm/cpu/armv7/start.o
 .gnu.version_r
                0x00000000        0x0 arch/arm/cpu/armv7/start.o

.ARM.exidx
 *(.ARM.exidx*)

.gnu.linkonce.armexidx
 *(.gnu.linkonce.armexidx.*)
LOAD arch/arm/cpu/armv7/start.o
START GROUP
LOAD arch/arm/cpu/built-in.o
LOAD arch/arm/cpu/armv7/built-in.o
LOAD arch/arm/lib/built-in.o
LOAD arch/arm/mach-sunxi/built-in.o
LOAD board/sunxi/built-in.o
LOAD cmd/built-in.o
LOAD common/built-in.o
LOAD disk/built-in.o
LOAD drivers/built-in.o
LOAD drivers/dma/built-in.o
LOAD drivers/gpio/built-in.o
LOAD drivers/i2c/built-in.o
LOAD drivers/mmc/built-in.o
LOAD drivers/mtd/built-in.o
LOAD drivers/mtd/onenand/built-in.o
LOAD drivers/mtd/spi/built-in.o
LOAD drivers/net/built-in.o
LOAD drivers/net/phy/built-in.o
LOAD drivers/pci/built-in.o
LOAD drivers/power/built-in.o
LOAD drivers/power/battery/built-in.o
LOAD drivers/power/domain/built-in.o
LOAD drivers/power/fuel_gauge/built-in.o
LOAD drivers/power/mfd/built-in.o
LOAD drivers/power/pmic/built-in.o
LOAD drivers/power/regulator/built-in.o
LOAD drivers/serial/built-in.o
LOAD drivers/spi/built-in.o
LOAD drivers/usb/common/built-in.o
LOAD drivers/usb/dwc3/built-in.o
LOAD drivers/usb/emul/built-in.o
LOAD drivers/usb/eth/built-in.o
LOAD drivers/usb/gadget/built-in.o
LOAD drivers/usb/gadget/udc/built-in.o
LOAD drivers/usb/host/built-in.o
LOAD drivers/usb/musb-new/built-in.o
LOAD drivers/usb/musb/built-in.o
LOAD drivers/usb/phy/built-in.o
LOAD drivers/usb/ulpi/built-in.o
LOAD fs/built-in.o
LOAD lib/built-in.o
LOAD net/built-in.o
LOAD test/built-in.o
LOAD test/dm/built-in.o
END GROUP
LOAD arch/arm/lib/eabi_compat.o
LOAD arch/arm/lib/lib.a
OUTPUT(u-boot elf32-littlearm)

.ARM.attributes
                0x00000000       0x2f
 .ARM.attributes
                0x00000000       0x21 arch/arm/cpu/armv7/start.o
 .ARM.attributes
                0x00000021       0x31 arch/arm/cpu/armv7/built-in.o
 .ARM.attributes
                0x00000052       0x2d arch/arm/lib/built-in.o
 .ARM.attributes
                0x0000007f       0x2f arch/arm/mach-sunxi/built-in.o
 .ARM.attributes
                0x000000ae       0x2f board/sunxi/built-in.o
 .ARM.attributes
                0x000000dd       0x2f cmd/built-in.o
 .ARM.attributes
                0x0000010c       0x2f common/built-in.o
 .ARM.attributes
                0x0000013b       0x2f disk/built-in.o
 .ARM.attributes
                0x0000016a       0x2f drivers/built-in.o
 .ARM.attributes
                0x00000199       0x2f drivers/gpio/built-in.o
 .ARM.attributes
                0x000001c8       0x2f drivers/i2c/built-in.o
 .ARM.attributes
                0x000001f7       0x2f drivers/mmc/built-in.o
 .ARM.attributes
                0x00000226       0x2f drivers/net/built-in.o
 .ARM.attributes
                0x00000255       0x2f drivers/net/phy/built-in.o
 .ARM.attributes
                0x00000284       0x2f drivers/serial/built-in.o
 .ARM.attributes
                0x000002b3       0x2f drivers/usb/host/built-in.o
 .ARM.attributes
                0x000002e2       0x2f fs/built-in.o
 .ARM.attributes
                0x00000311       0x2f lib/built-in.o
 .ARM.attributes
                0x00000340       0x2f net/built-in.o
 .ARM.attributes
                0x0000036f       0x2f test/dm/built-in.o
 .ARM.attributes
                0x0000039e       0x21 arch/arm/lib/lib.a(ashldi3.o)
 .ARM.attributes
                0x000003bf       0x21 arch/arm/lib/lib.a(lib1funcs.o)
 .ARM.attributes
                0x000003e0       0x21 arch/arm/lib/lib.a(lshrdi3.o)
 .ARM.attributes
                0x00000401       0x2f arch/arm/lib/lib.a(div0.o)

.comment        0x00000000       0x64
 .comment       0x00000000       0x64 arch/arm/cpu/armv7/built-in.o
                                0x3f2 (size before relaxing)
 .comment       0x00000000      0x3f2 arch/arm/lib/built-in.o
 .comment       0x00000000      0x38d arch/arm/mach-sunxi/built-in.o
 .comment       0x00000000       0x65 board/sunxi/built-in.o
 .comment       0x00000000      0xe34 cmd/built-in.o
 .comment       0x00000000      0xe99 common/built-in.o
 .comment       0x00000000      0x194 disk/built-in.o
 .comment       0x00000000      0x5eb drivers/built-in.o
 .comment       0x00000000       0xca drivers/gpio/built-in.o
 .comment       0x00000000       0xca drivers/i2c/built-in.o
 .comment       0x00000000      0x194 drivers/mmc/built-in.o
 .comment       0x00000000       0x65 drivers/net/built-in.o
 .comment       0x00000000       0x65 drivers/net/phy/built-in.o
 .comment       0x00000000       0xca drivers/serial/built-in.o
 .comment       0x00000000      0x1f9 drivers/usb/host/built-in.o
 .comment       0x00000000      0x25e fs/built-in.o
 .comment       0x00000000     0x12f0 lib/built-in.o
 .comment       0x00000000      0x38d net/built-in.o
 .comment       0x00000000       0x65 test/dm/built-in.o
 .comment       0x00000000       0x65 arch/arm/lib/lib.a(div0.o)

.note.GNU-stack
                0x00000000        0x0
 .note.GNU-stack
                0x00000000        0x0 arch/arm/cpu/armv7/built-in.o
 .note.GNU-stack
                0x00000000        0x0 arch/arm/lib/built-in.o
 .note.GNU-stack
                0x00000000        0x0 arch/arm/mach-sunxi/built-in.o
 .note.GNU-stack
                0x00000000        0x0 board/sunxi/built-in.o
 .note.GNU-stack
                0x00000000        0x0 cmd/built-in.o
 .note.GNU-stack
                0x00000000        0x0 common/built-in.o
 .note.GNU-stack
                0x00000000        0x0 disk/built-in.o
 .note.GNU-stack
                0x00000000        0x0 drivers/built-in.o
 .note.GNU-stack
                0x00000000        0x0 drivers/gpio/built-in.o
 .note.GNU-stack
                0x00000000        0x0 drivers/i2c/built-in.o
 .note.GNU-stack
                0x00000000        0x0 drivers/mmc/built-in.o
 .note.GNU-stack
                0x00000000        0x0 drivers/net/built-in.o
 .note.GNU-stack
                0x00000000        0x0 drivers/net/phy/built-in.o
 .note.GNU-stack
                0x00000000        0x0 drivers/serial/built-in.o
 .note.GNU-stack
                0x00000000        0x0 drivers/usb/host/built-in.o
 .note.GNU-stack
                0x00000000        0x0 fs/built-in.o
 .note.GNU-stack
                0x00000000        0x0 lib/built-in.o
 .note.GNU-stack
                0x00000000        0x0 net/built-in.o
 .note.GNU-stack
                0x00000000        0x0 test/dm/built-in.o
 .note.GNU-stack
                0x00000000        0x0 arch/arm/lib/lib.a(div0.o)

.debug_line     0x00000000    0x1ffbb
 .debug_line    0x00000000       0x87 arch/arm/cpu/armv7/start.o
 .debug_line    0x00000087      0xbc0 arch/arm/cpu/armv7/built-in.o
 .debug_line    0x00000c47      0xe1e arch/arm/lib/built-in.o
 .debug_line    0x00001a65      0xacf arch/arm/mach-sunxi/built-in.o
 .debug_line    0x00002534      0x2f6 board/sunxi/built-in.o
 .debug_line    0x0000282a     0x4853 cmd/built-in.o
 .debug_line    0x0000707d     0x6e3b common/built-in.o
 .debug_line    0x0000deb8      0xff5 disk/built-in.o
 .debug_line    0x0000eead     0x1e11 drivers/built-in.o
 .debug_line    0x00010cbe      0x957 drivers/gpio/built-in.o
 .debug_line    0x00011615      0x530 drivers/i2c/built-in.o
 .debug_line    0x00011b45      0xeb7 drivers/mmc/built-in.o
 .debug_line    0x000129fc      0x431 drivers/net/built-in.o
 .debug_line    0x00012e2d      0x657 drivers/net/phy/built-in.o
 .debug_line    0x00013484      0x613 drivers/serial/built-in.o
 .debug_line    0x00013a97     0x173c drivers/usb/host/built-in.o
 .debug_line    0x000151d3     0x1c55 fs/built-in.o
 .debug_line    0x00016e28     0x6faa lib/built-in.o
 .debug_line    0x0001ddd2     0x1f46 net/built-in.o
 .debug_line    0x0001fd18       0xc3 test/dm/built-in.o
 .debug_line    0x0001fddb       0x4c arch/arm/lib/lib.a(ashldi3.o)
 .debug_line    0x0001fe27      0x103 arch/arm/lib/lib.a(lib1funcs.o)
 .debug_line    0x0001ff2a       0x4c arch/arm/lib/lib.a(lshrdi3.o)
 .debug_line    0x0001ff76       0x45 arch/arm/lib/lib.a(div0.o)

.debug_info     0x00000000    0xa051d
 .debug_info    0x00000000       0x71 arch/arm/cpu/armv7/start.o
 .debug_info    0x00000071     0x26ca arch/arm/cpu/armv7/built-in.o
 .debug_info    0x0000273b     0x3e5d arch/arm/lib/built-in.o
 .debug_info    0x00006598     0x3b5e arch/arm/mach-sunxi/built-in.o
 .debug_info    0x0000a0f6     0x1238 board/sunxi/built-in.o
 .debug_info    0x0000b32e    0x18c6b cmd/built-in.o
 .debug_info    0x00023f99    0x2239d common/built-in.o
 .debug_info    0x00046336     0x4a26 disk/built-in.o
 .debug_info    0x0004ad5c     0xa8ee drivers/built-in.o
 .debug_info    0x0005564a     0x33b8 drivers/gpio/built-in.o
 .debug_info    0x00058a02     0x2272 drivers/i2c/built-in.o
 .debug_info    0x0005ac74     0x529f drivers/mmc/built-in.o
 .debug_info    0x0005ff13     0x2a22 drivers/net/built-in.o
 .debug_info    0x00062935     0x223d drivers/net/phy/built-in.o
 .debug_info    0x00064b72     0x286e drivers/serial/built-in.o
 .debug_info    0x000673e0     0xbde0 drivers/usb/host/built-in.o
 .debug_info    0x000731c0     0x787f fs/built-in.o
 .debug_info    0x0007aa3f    0x1d567 lib/built-in.o
 .debug_info    0x00097fa6     0x8075 net/built-in.o
 .debug_info    0x000a001b      0x374 test/dm/built-in.o
 .debug_info    0x000a038f       0x6d arch/arm/lib/lib.a(ashldi3.o)
 .debug_info    0x000a03fc       0x6b arch/arm/lib/lib.a(lib1funcs.o)
 .debug_info    0x000a0467       0x6d arch/arm/lib/lib.a(lshrdi3.o)
 .debug_info    0x000a04d4       0x49 arch/arm/lib/lib.a(div0.o)

.debug_abbrev   0x00000000    0x1cf0e
 .debug_abbrev  0x00000000       0x14 arch/arm/cpu/armv7/start.o
 .debug_abbrev  0x00000014      0xda8 arch/arm/cpu/armv7/built-in.o
 .debug_abbrev  0x00000dbc      0xf2d arch/arm/lib/built-in.o
 .debug_abbrev  0x00001ce9      0xee0 arch/arm/mach-sunxi/built-in.o
 .debug_abbrev  0x00002bc9      0x368 board/sunxi/built-in.o
 .debug_abbrev  0x00002f31     0x4e38 cmd/built-in.o
 .debug_abbrev  0x00007d69     0x6222 common/built-in.o
 .debug_abbrev  0x0000df8b      0xd8d disk/built-in.o
 .debug_abbrev  0x0000ed18     0x1ccb drivers/built-in.o
 .debug_abbrev  0x000109e3      0x6fc drivers/gpio/built-in.o
 .debug_abbrev  0x000110df      0x662 drivers/i2c/built-in.o
 .debug_abbrev  0x00011741      0xe41 drivers/mmc/built-in.o
 .debug_abbrev  0x00012582      0x3ec drivers/net/built-in.o
 .debug_abbrev  0x0001296e      0x40c drivers/net/phy/built-in.o
 .debug_abbrev  0x00012d7a      0x69f drivers/serial/built-in.o
 .debug_abbrev  0x00013419     0x1008 drivers/usb/host/built-in.o
 .debug_abbrev  0x00014421     0x1182 fs/built-in.o
 .debug_abbrev  0x000155a3     0x5c85 lib/built-in.o
 .debug_abbrev  0x0001b228     0x1b05 net/built-in.o
 .debug_abbrev  0x0001cd2d      0x16b test/dm/built-in.o
 .debug_abbrev  0x0001ce98       0x14 arch/arm/lib/lib.a(ashldi3.o)
 .debug_abbrev  0x0001ceac       0x12 arch/arm/lib/lib.a(lib1funcs.o)
 .debug_abbrev  0x0001cebe       0x14 arch/arm/lib/lib.a(lshrdi3.o)
 .debug_abbrev  0x0001ced2       0x3c arch/arm/lib/lib.a(div0.o)

.debug_aranges  0x00000000     0x4b20
 .debug_aranges
                0x00000000       0x20 arch/arm/cpu/armv7/start.o
 .debug_aranges
                0x00000020      0x2d0 arch/arm/cpu/armv7/built-in.o
 .debug_aranges
                0x000002f0      0x2c0 arch/arm/lib/built-in.o
 .debug_aranges
                0x000005b0      0x238 arch/arm/mach-sunxi/built-in.o
 .debug_aranges
                0x000007e8       0x60 board/sunxi/built-in.o
 .debug_aranges
                0x00000848      0x920 cmd/built-in.o
 .debug_aranges
                0x00001168     0x1060 common/built-in.o
 .debug_aranges
                0x000021c8      0x188 disk/built-in.o
 .debug_aranges
                0x00002350      0x510 drivers/built-in.o
 .debug_aranges
                0x00002860      0x1d0 drivers/gpio/built-in.o
 .debug_aranges
                0x00002a30      0x110 drivers/i2c/built-in.o
 .debug_aranges
                0x00002b40      0x1e8 drivers/mmc/built-in.o
 .debug_aranges
                0x00002d28       0x70 drivers/net/built-in.o
 .debug_aranges
                0x00002d98       0xc8 drivers/net/phy/built-in.o
 .debug_aranges
                0x00002e60      0x128 drivers/serial/built-in.o
 .debug_aranges
                0x00002f88      0x288 drivers/usb/host/built-in.o
 .debug_aranges
                0x00003210      0x330 fs/built-in.o
 .debug_aranges
                0x00003540     0x10d8 lib/built-in.o
 .debug_aranges
                0x00004618      0x428 net/built-in.o
 .debug_aranges
                0x00004a40       0x38 test/dm/built-in.o
 .debug_aranges
                0x00004a78       0x20 arch/arm/lib/lib.a(ashldi3.o)
 .debug_aranges
                0x00004a98       0x48 arch/arm/lib/lib.a(lib1funcs.o)
 .debug_aranges
                0x00004ae0       0x20 arch/arm/lib/lib.a(lshrdi3.o)
 .debug_aranges
                0x00004b00       0x20 arch/arm/lib/lib.a(div0.o)

.debug_frame    0x00000000     0xc794
 .debug_frame   0x00000000      0x434 arch/arm/cpu/armv7/built-in.o
 .debug_frame   0x00000434      0x4b0 arch/arm/lib/built-in.o
 .debug_frame   0x000008e4      0x438 arch/arm/mach-sunxi/built-in.o
 .debug_frame   0x00000d1c       0xf4 board/sunxi/built-in.o
 .debug_frame   0x00000e10     0x17a4 cmd/built-in.o
 .debug_frame   0x000025b4     0x2cbc common/built-in.o
 .debug_frame   0x00005270      0x4dc disk/built-in.o
 .debug_frame   0x0000574c      0xdd4 drivers/built-in.o
 .debug_frame   0x00006520      0x5f4 drivers/gpio/built-in.o
 .debug_frame   0x00006b14      0x310 drivers/i2c/built-in.o
 .debug_frame   0x00006e24      0x534 drivers/mmc/built-in.o
 .debug_frame   0x00007358      0x164 drivers/net/built-in.o
 .debug_frame   0x000074bc      0x250 drivers/net/phy/built-in.o
 .debug_frame   0x0000770c      0x318 drivers/serial/built-in.o
 .debug_frame   0x00007a24      0x7c4 drivers/usb/host/built-in.o
 .debug_frame   0x000081e8      0x9b8 fs/built-in.o
 .debug_frame   0x00008ba0     0x2f74 lib/built-in.o
 .debug_frame   0x0000bb14      0xbf0 net/built-in.o
 .debug_frame   0x0000c704       0x70 test/dm/built-in.o
 .debug_frame   0x0000c774       0x20 arch/arm/lib/lib.a(div0.o)

.debug_str      0x00000000    0x15e5f
 .debug_str     0x00000000      0xda0 arch/arm/cpu/armv7/built-in.o
                               0x190c (size before relaxing)
 .debug_str     0x00000da0     0x1395 arch/arm/lib/built-in.o
                               0x2fec (size before relaxing)
 .debug_str     0x00002135      0xd7b arch/arm/mach-sunxi/built-in.o
                               0x29d9 (size before relaxing)
 .debug_str     0x00002eb0      0x44c board/sunxi/built-in.o
                                0xae0 (size before relaxing)
 .debug_str     0x000032fc     0x3dc8 cmd/built-in.o
                               0xeae3 (size before relaxing)
 .debug_str     0x000070c4     0x4077 common/built-in.o
                              0x165e5 (size before relaxing)
 .debug_str     0x0000b13b      0xae2 disk/built-in.o
                               0x2016 (size before relaxing)
 .debug_str     0x0000bc1d     0x118b drivers/built-in.o
                               0x7021 (size before relaxing)
 .debug_str     0x0000cda8      0x524 drivers/gpio/built-in.o
                               0x1dc9 (size before relaxing)
 .debug_str     0x0000d2cc      0x4cb drivers/i2c/built-in.o
                                0xee0 (size before relaxing)
 .debug_str     0x0000d797      0x71e drivers/mmc/built-in.o
                               0x2469 (size before relaxing)
 .debug_str     0x0000deb5      0x3ca drivers/net/built-in.o
                               0x17df (size before relaxing)
 .debug_str     0x0000e27f      0x237 drivers/net/phy/built-in.o
                                0xfc9 (size before relaxing)
 .debug_str     0x0000e4b6      0x433 drivers/serial/built-in.o
                               0x1a81 (size before relaxing)
 .debug_str     0x0000e8e9      0xed7 drivers/usb/host/built-in.o
                               0x68c1 (size before relaxing)
 .debug_str     0x0000f7c0     0x11c4 fs/built-in.o
                               0x3298 (size before relaxing)
 .debug_str     0x00010984     0x3f9e lib/built-in.o
                               0xec58 (size before relaxing)
 .debug_str     0x00014922     0x14a9 net/built-in.o
                               0x6161 (size before relaxing)
 .debug_str     0x00015dcb       0x79 test/dm/built-in.o
                                0x251 (size before relaxing)
 .debug_str     0x00015e44       0x1b arch/arm/lib/lib.a(div0.o)
                                 0x72 (size before relaxing)

.debug_loc      0x00000000    0x54147
 .debug_loc     0x00000000      0x9ab arch/arm/cpu/armv7/built-in.o
 .debug_loc     0x000009ab      0xeee arch/arm/lib/built-in.o
 .debug_loc     0x00001899      0xc44 arch/arm/mach-sunxi/built-in.o
 .debug_loc     0x000024dd      0x365 board/sunxi/built-in.o
 .debug_loc     0x00002842     0xd5fa cmd/built-in.o
 .debug_loc     0x0000fe3c    0x11679 common/built-in.o
 .debug_loc     0x000214b5     0x26ce disk/built-in.o
 .debug_loc     0x00023b83     0x4dc8 drivers/built-in.o
 .debug_loc     0x0002894b     0x1c47 drivers/gpio/built-in.o
 .debug_loc     0x0002a592     0x1079 drivers/i2c/built-in.o
 .debug_loc     0x0002b60b     0x27a7 drivers/mmc/built-in.o
 .debug_loc     0x0002ddb2      0xe6b drivers/net/built-in.o
 .debug_loc     0x0002ec1d     0x1427 drivers/net/phy/built-in.o
 .debug_loc     0x00030044      0xcdf drivers/serial/built-in.o
 .debug_loc     0x00030d23     0x4c15 drivers/usb/host/built-in.o
 .debug_loc     0x00035938     0x6184 fs/built-in.o
 .debug_loc     0x0003babc    0x13c8b lib/built-in.o
 .debug_loc     0x0004f747     0x4832 net/built-in.o
 .debug_loc     0x00053f79      0x1ce test/dm/built-in.o

.debug_ranges   0x00000000     0xb0d8
 .debug_ranges  0x00000000      0x338 arch/arm/cpu/armv7/built-in.o
 .debug_ranges  0x00000338      0x298 arch/arm/lib/built-in.o
 .debug_ranges  0x000005d0      0x260 arch/arm/mach-sunxi/built-in.o
 .debug_ranges  0x00000830       0x50 board/sunxi/built-in.o
 .debug_ranges  0x00000880     0x1810 cmd/built-in.o
 .debug_ranges  0x00002090     0x22b8 common/built-in.o
 .debug_ranges  0x00004348      0x7a0 disk/built-in.o
 .debug_ranges  0x00004ae8      0x820 drivers/built-in.o
 .debug_ranges  0x00005308      0x260 drivers/gpio/built-in.o
 .debug_ranges  0x00005568      0x2e0 drivers/i2c/built-in.o
 .debug_ranges  0x00005848      0x5e8 drivers/mmc/built-in.o
 .debug_ranges  0x00005e30      0x388 drivers/net/built-in.o
 .debug_ranges  0x000061b8      0x480 drivers/net/phy/built-in.o
 .debug_ranges  0x00006638      0x208 drivers/serial/built-in.o
 .debug_ranges  0x00006840      0x818 drivers/usb/host/built-in.o
 .debug_ranges  0x00007058      0xd08 fs/built-in.o
 .debug_ranges  0x00007d60     0x2498 lib/built-in.o
 .debug_ranges  0x0000a1f8      0xe68 net/built-in.o
 .debug_ranges  0x0000b060       0x28 test/dm/built-in.o
 .debug_ranges  0x0000b088       0x40 arch/arm/lib/lib.a(lib1funcs.o)
 .debug_ranges  0x0000b0c8       0x10 arch/arm/lib/lib.a(div0.o)
